
app.elf:     file format elf32-littleriscv
app.elf
architecture: riscv:rv32, flags 0x00000112:
EXEC_P, HAS_SYMS, D_PAGED
start address 0x00000550

Program Header:
0x70000003 off    0x0001b9da vaddr 0x00000000 paddr 0x00000000 align 2**0
         filesz 0x00000034 memsz 0x00000000 flags r--
    LOAD off    0x00001000 vaddr 0x00000000 paddr 0x00000000 align 2**12
         filesz 0x00000020 memsz 0x00000020 flags r-x
    LOAD off    0x00001020 vaddr 0x00000020 paddr 0x00000020 align 2**12
         filesz 0x00018dd0 memsz 0x00018dd0 flags r-x
    LOAD off    0x00019df0 vaddr 0x00018df0 paddr 0x0001a9c8 align 2**12
         filesz 0x00001bd8 memsz 0x00001bd8 flags rw-
    LOAD off    0x000005a0 vaddr 0x0001c5a0 paddr 0x0001c5a0 align 2**12
         filesz 0x00000000 memsz 0x00000114 flags rw-

Sections:
Idx Name          Size      VMA       LMA       File off  Algn
  0 .entry        00000020  00000000  00000000  00001000  2**5
                  CONTENTS, ALLOC, LOAD, READONLY, CODE
  1 .exceptions   0000029c  00000020  00000020  00001020  2**2
                  CONTENTS, ALLOC, LOAD, READONLY, CODE
  2 .text         000179c8  000002bc  000002bc  000012bc  2**2
                  CONTENTS, ALLOC, LOAD, READONLY, CODE
  3 .rodata       00001160  00017c90  00017c90  00018c90  2**4
                  CONTENTS, ALLOC, LOAD, READONLY, DATA
  4 .rwdata       00001bd8  00018df0  0001a9c8  00019df0  2**3
                  CONTENTS, ALLOC, LOAD, DATA
  5 .bss          00000114  0001c5a0  0001c5a0  0001c5a0  2**3
                  ALLOC
  6 .onchip_memory2_0 00000000  0001c6b4  0001c6b4  0001b9c8  2**0
                  CONTENTS
  7 .comment      00000012  00000000  00000000  0001b9c8  2**0
                  CONTENTS, READONLY
  8 .riscv.attributes 00000034  00000000  00000000  0001b9da  2**0
                  CONTENTS, READONLY
  9 .debug_aranges 000006c0  00000000  00000000  0001ba10  2**3
                  CONTENTS, READONLY, DEBUGGING, OCTETS
 10 .debug_info   0000aace  00000000  00000000  0001c0d0  2**0
                  CONTENTS, READONLY, DEBUGGING, OCTETS
 11 .debug_abbrev 00003de9  00000000  00000000  00026b9e  2**0
                  CONTENTS, READONLY, DEBUGGING, OCTETS
 12 .debug_line   0000c8e8  00000000  00000000  0002a987  2**0
                  CONTENTS, READONLY, DEBUGGING, OCTETS
 13 .debug_frame  00000f54  00000000  00000000  00037270  2**2
                  CONTENTS, READONLY, DEBUGGING, OCTETS
 14 .debug_str    00001735  00000000  00000000  000381c4  2**0
                  CONTENTS, READONLY, DEBUGGING, OCTETS
 15 .debug_line_str 000017fc  00000000  00000000  000398f9  2**0
                  CONTENTS, READONLY, DEBUGGING, OCTETS
 16 .debug_ranges 00000020  00000000  00000000  0003b0f8  2**3
                  CONTENTS, READONLY, DEBUGGING, OCTETS
 17 .debug_rnglists 00001ec9  00000000  00000000  0003b118  2**0
                  CONTENTS, READONLY, DEBUGGING, OCTETS
 18 .debug_loclists 0000e363  00000000  00000000  0003cfe1  2**0
                  CONTENTS, READONLY, DEBUGGING, OCTETS
SYMBOL TABLE:
00000000 l    d  .entry	00000000 .entry
00000020 l    d  .exceptions	00000000 .exceptions
000002bc l    d  .text	00000000 .text
00017c90 l    d  .rodata	00000000 .rodata
00018df0 l    d  .rwdata	00000000 .rwdata
0001c5a0 l    d  .bss	00000000 .bss
0001c6b4 l    d  .onchip_memory2_0	00000000 .onchip_memory2_0
00000000 l    d  .comment	00000000 .comment
00000000 l    d  .riscv.attributes	00000000 .riscv.attributes
00000000 l    d  .debug_aranges	00000000 .debug_aranges
00000000 l    d  .debug_info	00000000 .debug_info
00000000 l    d  .debug_abbrev	00000000 .debug_abbrev
00000000 l    d  .debug_line	00000000 .debug_line
00000000 l    d  .debug_frame	00000000 .debug_frame
00000000 l    d  .debug_str	00000000 .debug_str
00000000 l    d  .debug_line_str	00000000 .debug_line_str
00000000 l    d  .debug_ranges	00000000 .debug_ranges
00000000 l    d  .debug_rnglists	00000000 .debug_rnglists
00000000 l    d  .debug_loclists	00000000 .debug_loclists
00000000 l    df *ABS*	00000000 crt0.S.obj
00000608 l       .text	00000000 alt_after_alt_main
00000000 l    df *ABS*	00000000 machine_trap.S.obj
00000020 l       .exceptions	00000000 save_registers
00000000 l    df *ABS*	00000000 alt_irq_handler.c
00000000 l    df *ABS*	00000000 hello_world.c
00000000 l    df *ABS*	00000000 alt_load.c
0000060c l     F .text	00000064 alt_load_section
00000000 l    df *ABS*	00000000 alt_main.c
00000000 l    df *ABS*	00000000 alt_sys_init.c
00018df0 l     O .rwdata	00001060 jtag_uart_0
00000000 l    df *ABS*	00000000 altera_avalon_jtag_uart_fd.c
00000000 l    df *ABS*	00000000 altera_avalon_jtag_uart_init.c
00000a6c l     F .text	00000238 altera_avalon_jtag_uart_irq
00000ca4 l     F .text	000000bc altera_avalon_jtag_uart_timeout
00000000 l    df *ABS*	00000000 altera_avalon_jtag_uart_ioctl.c
00000000 l    df *ABS*	00000000 altera_avalon_jtag_uart_read.c
00000000 l    df *ABS*	00000000 altera_avalon_jtag_uart_write.c
00000000 l    df *ABS*	00000000 alt_alarm_start.c
00000000 l    df *ABS*	00000000 alt_dcache_flush_all.c
00000000 l    df *ABS*	00000000 alt_dev.c
000014e8 l     F .text	0000002c alt_dev_null_write
00000000 l    df *ABS*	00000000 alt_dev_llist_insert.c
00001550 l     F .text	0000004c alt_get_errno
00000000 l    df *ABS*	00000000 alt_do_ctors.c
00000000 l    df *ABS*	00000000 alt_do_dtors.c
00000000 l    df *ABS*	00000000 alt_errno.c
00000000 l    df *ABS*	00000000 alt_icache_flush_all.c
00000000 l    df *ABS*	00000000 alt_iic.c
00000000 l    df *ABS*	00000000 alt_iic_isr_register.c
00000000 l    df *ABS*	00000000 alt_io_redirect.c
000018f4 l     F .text	000000dc alt_open_fd
00000000 l    df *ABS*	00000000 alt_release_fd.c
00000000 l    df *ABS*	00000000 alt_tick.c
00000000 l    df *ABS*	00000000 intel_niosv_irq.c
00000000 l    df *ABS*	00000000 mtimer.c
00000000 l    df *ABS*	00000000 lib_a-atexit.o
00000000 l    df *ABS*	00000000 lib_a-exit.o
00000000 l    df *ABS*	00000000 lib_a-impure.o
00019ff8 l     O .rwdata	00000428 impure_data
00000000 l    df *ABS*	00000000 lib_a-memcpy.o
00000000 l    df *ABS*	00000000 lib_a-printf.o
00000000 l    df *ABS*	00000000 lib_a-puts.o
00000000 l    df *ABS*	00000000 lib_a-reent.o
00000000 l    df *ABS*	00000000 lib_a-strlen.o
00000000 l    df *ABS*	00000000 lib_a-sysclose.o
00000000 l    df *ABS*	00000000 lib_a-sysopen.o
00000000 l    df *ABS*	00000000 lib_a-vfprintf.o
00005244 l     F .text	000000f8 __sbprintf
00018158 l     O .rodata	00000010 blanks.1
00018168 l     O .rodata	00000010 zeroes.0
00000000 l    df *ABS*	00000000 lib_a-wsetup.o
00000000 l    df *ABS*	00000000 lib_a-__atexit.o
00000000 l    df *ABS*	00000000 lib_a-__call_atexit.o
000056a4 l     F .text	00000018 register_fini
00000000 l    df *ABS*	00000000 lib_a-closer.o
00000000 l    df *ABS*	00000000 lib_a-fflush.o
00000000 l    df *ABS*	00000000 lib_a-findfp.o
00005b18 l     F .text	00000040 __fp_lock
00005b58 l     F .text	00000040 __fp_unlock
00000000 l    df *ABS*	00000000 lib_a-fini.o
00000000 l    df *ABS*	00000000 lib_a-freer.o
00000000 l    df *ABS*	00000000 lib_a-fvwrite.o
00000000 l    df *ABS*	00000000 lib_a-fwalk.o
00000000 l    df *ABS*	00000000 lib_a-ldtoa.o
00006a48 l     F .text	00000054 eshdn1
00006a9c l     F .text	00000054 eshup1
00006af0 l     F .text	0000008c m16m
00006b7c l     F .text	000000bc emovo.constprop.0
00006c38 l     F .text	00000174 enormlz
00006dac l     F .text	000001bc eshift.part.0
00006f68 l     F .text	000000b4 emovi
0000701c l     F .text	0000014c ecmp
00007168 l     F .text	0000049c emdnorm
00007604 l     F .text	00000164 eiremain
00007768 l     F .text	00000154 e113toe.isra.0
000078bc l     F .text	00000594 ediv
00007e50 l     F .text	000004d0 emul
00018220 l     O .rodata	00000014 ezero
00018234 l     O .rodata	00000104 etens
00018338 l     O .rodata	00000104 emtens
0001843c l     O .rodata	00000014 eone
00018450 l     O .rodata	00000022 bmask
00000000 l    df *ABS*	00000000 lib_a-localeconv.o
00000000 l    df *ABS*	00000000 lib_a-lock.o
00000000 l    df *ABS*	00000000 lib_a-makebuf.o
00000000 l    df *ABS*	00000000 lib_a-mallocr.o
00000000 l    df *ABS*	00000000 lib_a-memchr.o
00000000 l    df *ABS*	00000000 lib_a-memmove-stub.o
00000000 l    df *ABS*	00000000 lib_a-memset.o
00000000 l    df *ABS*	00000000 lib_a-mlock.o
00000000 l    df *ABS*	00000000 lib_a-mprec.o
000184a8 l     O .rodata	0000000c p05.0
00000000 l    df *ABS*	00000000 lib_a-openr.o
00000000 l    df *ABS*	00000000 lib_a-reallocr.o
00000000 l    df *ABS*	00000000 lib_a-s_frexp.o
00000000 l    df *ABS*	00000000 lib_a-sbrkr.o
00000000 l    df *ABS*	00000000 lib_a-sprintf.o
00000000 l    df *ABS*	00000000 lib_a-stdio.o
00000000 l    df *ABS*	00000000 lib_a-strcpy.o
00000000 l    df *ABS*	00000000 lib_a-strncpy.o
00000000 l    df *ABS*	00000000 lib_a-svfprintf.o
000187d4 l     O .rodata	00000010 blanks.1
000187e4 l     O .rodata	00000010 zeroes.0
00000000 l    df *ABS*	00000000 lib_a-vfiprintf.o
0000ea90 l     F .text	000000f4 __sprint_r.part.0
0000ffd8 l     F .text	000000f8 __sbprintf
00018960 l     O .rodata	00000010 blanks.1
00018970 l     O .rodata	00000010 zeroes.0
00000000 l    df *ABS*	00000000 lib_a-writer.o
00000000 l    df *ABS*	00000000 lib_a-assert.o
00000000 l    df *ABS*	00000000 lib_a-callocr.o
00000000 l    df *ABS*	00000000 lib_a-errno.o
00000000 l    df *ABS*	00000000 lib_a-fclose.o
00000000 l    df *ABS*	00000000 lib_a-fiprintf.o
00000000 l    df *ABS*	00000000 lib_a-fputwc.o
00000000 l    df *ABS*	00000000 lib_a-fstatr.o
00000000 l    df *ABS*	00000000 lib_a-isattyr.o
00000000 l    df *ABS*	00000000 lib_a-locale.o
00000000 l    df *ABS*	00000000 lib_a-lseekr.o
00000000 l    df *ABS*	00000000 lib_a-mbtowc_r.o
00000000 l    df *ABS*	00000000 lib_a-readr.o
00000000 l    df *ABS*	00000000 lib_a-strcmp.o
00000000 l    df *ABS*	00000000 lib_a-svfiprintf.o
00018b3c l     O .rodata	00000010 blanks.1
00018b4c l     O .rodata	00000010 zeroes.0
00000000 l    df *ABS*	00000000 lib_a-wbuf.o
00000000 l    df *ABS*	00000000 lib_a-wcrtomb.o
00000000 l    df *ABS*	00000000 lib_a-wctomb_r.o
00000000 l    df *ABS*	00000000 lib_a-abort.o
00000000 l    df *ABS*	00000000 lib_a-signal.o
00000000 l    df *ABS*	00000000 lib_a-signalr.o
00000000 l    df *ABS*	00000000 divdf3.c
00000000 l    df *ABS*	00000000 muldf3.c
00000000 l    df *ABS*	00000000 eqtf2.c
00000000 l    df *ABS*	00000000 getf2.c
00000000 l    df *ABS*	00000000 letf2.c
00000000 l    df *ABS*	00000000 multf3.c
00000000 l    df *ABS*	00000000 subtf3.c
00000000 l    df *ABS*	00000000 fixtfsi.c
00000000 l    df *ABS*	00000000 floatsitf.c
00000000 l    df *ABS*	00000000 extenddftf2.c
00000000 l    df *ABS*	00000000 trunctfdf2.c
00000000 l    df *ABS*	00000000 libgcc2.c
00000000 l    df *ABS*	00000000 libgcc2.c
00000000 l    df *ABS*	00000000 alt_close.c
00016c28 l     F .text	0000004c alt_get_errno
00000000 l    df *ABS*	00000000 alt_exit.c
00000000 l    df *ABS*	00000000 alt_fstat.c
00016d94 l     F .text	0000004c alt_get_errno
00000000 l    df *ABS*	00000000 alt_getpid.c
00000000 l    df *ABS*	00000000 alt_isatty.c
00016ec0 l     F .text	0000004c alt_get_errno
00000000 l    df *ABS*	00000000 alt_kill.c
00017008 l     F .text	0000004c alt_get_errno
00000000 l    df *ABS*	00000000 alt_lseek.c
00017148 l     F .text	0000004c alt_get_errno
00000000 l    df *ABS*	00000000 alt_open.c
00017274 l     F .text	0000004c alt_get_errno
000172c0 l     F .text	000000ec alt_file_locked
00000000 l    df *ABS*	00000000 alt_read.c
00017514 l     F .text	0000004c alt_get_errno
00000000 l    df *ABS*	00000000 alt_sbrk.c
0001a9c4 l     O .rwdata	00000004 heap_end
00000000 l    df *ABS*	00000000 alt_write.c
0001771c l     F .text	0000004c alt_get_errno
00000000 l    df *ABS*	00000000 alt_find_dev.c
00000000 l    df *ABS*	00000000 alt_find_file.c
00000000 l    df *ABS*	00000000 alt_get_fd.c
00000000 l    df *ABS*	00000000 lib_a-stack_protector.o
00000000 l    df *ABS*	00000000 lib_a-sysfstat.o
00000000 l    df *ABS*	00000000 lib_a-syswrite.o
00017c28 g     F .text	0000000c .hidden __stack_chk_fail_local
0000b470 g     F .text	000000ac _mprec_log10
0000b584 g     F .text	00000064 __any_on
000107b4 g     F .text	00000058 _isatty_r
00018580 g     O .rodata	00000028 __mprec_tinytens
000006dc g     F .text	00000088 alt_main
0000bf00 g     F .text	000000b0 strcpy
00002380 g     F .text	00000094 cleanup_glue
00016ea0 g     F .text	00000020 _getpid
00002244 g     F .text	0000012c _puts_r
0001c60c g     O .bss	00000080 alt_irq
00010910 g     F .text	00000064 _lseek_r
0001a9c8 g       *ABS*	00000000 __flash_rwdata_start
00013738 g     F .text	00000158 .hidden __getf2
0001c6b4 g       *ABS*	00000000 __alt_heap_start
00012760 g     F .text	00000060 _kill_r
00013668 g     F .text	000000d0 .hidden __eqtf2
000021f4 g     F .text	00000050 printf
0001b194 g       *ABS*	00000000 __global_pointer$
0001c5ec g     O .bss	00000001 __lock___atexit_recursive_mutex
000120d4 g     F .text	00000078 _wcrtomb_r
00012290 g     F .text	00000090 _signal_r
0000be80 g     F .text	00000078 __sseek
00005c18 g     F .text	000001b0 __sinit
00011f4c g     F .text	00000174 __swbuf_r
0001080c g     F .text	0000007c _setlocale_r
00005b98 g     F .text	0000006c __sfmoreglue
00018df0 g       *ABS*	00000000 __tls_base
0000a3d0 g     F .text	0000000c __malloc_unlock
00016408 g     F .text	00000194 .hidden __floatsitf
0001c5d4 g     O .bss	00000001 __lock___arc4random_mutex
0000a1cc g     F .text	0000011c memmove
00005c04 g     F .text	00000014 _cleanup
0000a3dc g     F .text	000000a8 _Balloc
0001c608 g     O .bss	00000004 __stack_chk_guard
0001a9b8 g     O .rwdata	00000004 __atexit_recursive_mutex
00010288 g     F .text	0000000c __errno
000096d8 g     F .text	00000004 __retarget_lock_close
00000000 g     F .entry	00000004 __reset
000096b0 g     F .text	00000008 __localeconv_l
00000020 g       *ABS*	00000000 __flash_exceptions_start
00010754 g     F .text	00000060 _fstat_r
0001c5d0 g     O .bss	00000004 errno
0000bdf0 g     F .text	00000008 __seofread
0001c5ac g     O .bss	00000004 alt_argv
00019e78 g     O .rwdata	00000180 alt_fd_list
0001786c g     F .text	00000120 alt_find_dev
00002010 g     F .text	000001a4 memcpy
00005b0c g     F .text	0000000c _cleanup_r
0000c05c g     F .text	00002a34 _svfprintf_r
00001ee0 g     F .text	000000ac alt_niosv_timer_sc_isr
000019d0 g     F .text	00000078 alt_io_redirect
00002370 g     F .text	00000010 puts
00017c84 g       *ABS*	00000000 __fini_array_end
0000b3c8 g     F .text	000000a8 __ratio
00000ecc g     F .text	0000022c altera_avalon_jtag_uart_read
000021b4 g     F .text	00000040 _printf_r
00013890 g     F .text	00000154 .hidden __letf2
00000000 g       *ABS*	00000000 __alt_mem_onchip_memory2_0
00012320 g     F .text	000000c4 _raise_r
00016de0 g     F .text	000000c0 _fstat
00010134 g     F .text	00000058 __assert_func
000184b8 g     O .rodata	000000c8 __mprec_tens
000001b4 g     F .exceptions	00000108 handle_trap
0001c600 g     O .bss	00000004 __malloc_top_pad
000127c0 g     F .text	00000004 _getpid_r
0001c5b4 g     O .bss	00000004 __dso_handle
000096b8 g     F .text	0000000c _localeconv_r
0000a880 g     F .text	000000b0 __i2b
00006454 g     F .text	0000049c __sfvwrite_r
000123e4 g     F .text	000000e0 __sigtramp_r
0000bc54 g     F .text	00000058 _sbrk_r
000109e8 g     F .text	00000064 _read_r
0001a9a4 g     O .rwdata	00000004 alt_max_fd
00010294 g     F .text	00000178 _fclose_r
00005a40 g     F .text	000000cc fflush
0001c5fc g     O .bss	00000004 __malloc_max_sbrked_mem
00017c34 g     F .text	0000001c __stack_chk_init
0000b154 g     F .text	0000011c __b2d
0001c5e0 g     O .bss	00000001 __lock___env_recursive_mutex
00016f0c g     F .text	000000fc _isatty
0001c5f4 g     O .bss	00000001 __lock___sinit_recursive_mutex
00018dd0 g     O .rodata	00000004 _global_impure_ptr
0000b64c g     F .text	00000558 _realloc_r
0001c6b4 g       *ABS*	00000000 __bss_end
00001778 g     F .text	0000017c alt_iic_isr_register
00001b54 g     F .text	00000160 alt_tick
00010594 g     F .text	000000cc _fputwc_r
000185a8 g     O .rodata	00000028 __mprec_bigtens
0000a5f4 g     F .text	00000134 __s2b
0001221c g     F .text	00000018 abort
000173ac g     F .text	00000168 _open
00017668 g     F .text	000000b4 _sbrk
0000ae44 g     F .text	00000058 __mcmp
00017b90 g     F .text	00000098 __stack_chk_fail
00018df0 g       *ABS*	00000000 __tbss_start
00001f8c g     F .text	0000003c alt_niosv_mtimecmp_interrupt_init
00005f54 g     F .text	00000030 __fp_lock_all
00001abc g     F .text	00000098 alt_alarm_stop
000000c0 g     F .exceptions	000000f4 alt_irq_handler
00019e50 g     O .rwdata	00000028 alt_dev_null
00005fb4 g     F .text	0000005c __libc_fini_array
00001d94 g     F .text	00000084 alt_niosv_mtime_get
00002414 g     F .text	00000120 _reclaim_reent
000014a0 g     F .text	00000048 alt_dcache_flush_all
0000a728 g     F .text	00000078 __hi0bits
0001c5e4 g     O .bss	00000001 __lock___malloc_recursive_mutex
0001a9c8 g       *ABS*	00000000 __ram_rwdata_end
0001a99c g     O .rwdata	00000008 alt_dev_list
00017c64 g     F .text	00000018 write
00001d70 g     F .text	00000024 alt_timestamp_freq
00018df0 g       *ABS*	00000000 __ram_rodata_end
00017c50 g     F .text	00000014 fstat
0001630c g     F .text	000000fc .hidden __fixtfsi
0000ab64 g     F .text	00000150 __pow5mult
0001c6b4 g       *ABS*	00000000 end
00001514 g     F .text	0000003c alt_dev_reg
000096fc g     F .text	00000004 __retarget_lock_release_recursive
000096f0 g     F .text	00000008 __retarget_lock_try_acquire_recursive
000009ac g     F .text	000000c0 altera_avalon_jtag_uart_init
00020000 g       *ABS*	00000000 __alt_stack_pointer
00016ba0 g     F .text	00000088 .hidden __clzsi2
000010f8 g     F .text	0000023c altera_avalon_jtag_uart_write
00005f24 g     F .text	0000000c __sfp_lock_acquire
0000a108 g     F .text	000000c4 memchr
0000bcac g     F .text	0000006c _sprintf_r
0000614c g     F .text	00000308 _free_r
00010888 g     F .text	0000000c __locale_mb_cur_max
00005568 g     F .text	0000013c __call_exitprocs
0001a9bc g     O .rwdata	00000004 __malloc_sbrk_base
00000550 g     F .text	000000bc _start
0001c5b8 g     O .bss	00000004 _alt_tick_rate
000096e8 g     F .text	00000008 __retarget_lock_try_acquire
00017194 g     F .text	000000e0 _lseek
0000acb4 g     F .text	00000190 __lshift
00013890 g     F .text	00000154 .hidden __lttf2
0001c5c0 g     O .bss	00000008 _alt_nticks
00012588 g     F .text	00000098 signal
00013668 g     F .text	000000d0 .hidden __netf2
00001e74 g     F .text	0000006c alt_niosv_mtimecmp_get
0000079c g     F .text	0000009c alt_sys_init
00010bc8 g     F .text	000001c8 __ssprint_r
0000b5e8 g     F .text	00000064 _open_r
00018df0 g       *ABS*	00000000 __tdata_source
00005480 g     F .text	000000e8 __register_exitproc
00009638 g     F .text	00000078 _ldcheck
0000a930 g     F .text	00000234 __multiply
00000d60 g     F .text	0000006c altera_avalon_jtag_uart_close
00018df0 g       *ABS*	00000000 __ram_rwdata_start
0000bfb0 g     F .text	000000ac strncpy
00017c90 g       *ABS*	00000000 __ram_rodata_start
0001c68c g     O .bss	00000028 __malloc_current_mallinfo
0000b270 g     F .text	00000158 __d2b
0001c5c8 g     O .bss	00000008 alt_niosv_timestamp_offset
0001c5a4 g     O .bss	00000004 alt_niosv_timer_interrupt_handler
00000838 g     F .text	00000064 altera_avalon_jtag_uart_read_fd
00017ac8 g     F .text	000000c8 alt_get_fd
0001659c g     F .text	00000260 .hidden __extenddftf2
000056bc g     F .text	00000058 _close_r
00000900 g     F .text	00000054 altera_avalon_jtag_uart_close_fd
0001c6b4 g       *ABS*	00000000 __alt_stack_base
00000954 g     F .text	00000058 altera_avalon_jtag_uart_ioctl_fd
000096dc g     F .text	00000004 __retarget_lock_close_recursive
0000533c g     F .text	00000144 __swsetup_r
000127c4 g     F .text	00000780 .hidden __divdf3
00005dc8 g     F .text	0000015c __sfp
0000b51c g     F .text	00000068 __copybits
0001a420 g     O .rwdata	00000408 __malloc_av_
00005f48 g     F .text	0000000c __sinit_lock_release
00012f44 g     F .text	00000724 .hidden __muldf3
0000bd94 g     F .text	0000005c __sread
0001798c g     F .text	0000013c alt_find_file
0000159c g     F .text	000000a8 alt_dev_llist_insert
0000a3c4 g     F .text	0000000c __malloc_lock
00017c84 g       *ABS*	00000000 __fini_array_start
00005960 g     F .text	000000e0 _fflush_r
000101a0 g     F .text	000000e8 _calloc_r
000096e4 g     F .text	00000004 __retarget_lock_acquire_recursive
0001c5a0 g       *ABS*	00000000 __bss_start
00018df0 g       *ABS*	00000000 __tdata_start
00018df0 g       *ABS*	00000000 __tdata_end
0000a2e8 g     F .text	000000dc memset
000002bc g     F .text	00000294 main
0001c5b0 g     O .bss	00000004 alt_envp
0001c5f8 g     O .bss	00000004 __malloc_max_total_mem
0000089c g     F .text	00000064 altera_avalon_jtag_uart_write_fd
000096d4 g     F .text	00000004 __retarget_lock_init_recursive
000120c0 g     F .text	00000014 __swbuf
0000bef8 g     F .text	00000008 __sclose
00020000 g       *ABS*	00000000 __alt_heap_limit
0001040c g     F .text	00000010 fclose
00001cd8 g     F .text	00000040 alt_timestamp_start
00017c84 g       *ABS*	00000000 __init_array_end
00009968 g     F .text	000007a0 _malloc_r
000121ec g     F .text	00000030 __ascii_wctomb
0001a9a8 g     O .rwdata	00000004 alt_errno
0001041c g     F .text	00000038 _fiprintf_r
00012620 g     F .text	00000060 _init_signal
000068f0 g     F .text	000000a4 _fwalk
00010974 g     F .text	0000000c _mbtowc_r
00006010 g     F .text	0000013c _malloc_trim_r
00010a4c g     F .text	0000017c strcmp
00017c90 g       *ABS*	00000000 __flash_rodata_start
0000ffc0 g     F .text	00000018 vfiprintf
000096d0 g     F .text	00000004 __retarget_lock_init
000139e4 g     F .text	000011ac .hidden __multf3
00000764 g     F .text	00000038 alt_irq_init
00001a48 g     F .text	00000074 alt_release_fd
0000bd18 g     F .text	0000007c sprintf
00018ca0 g     O .rodata	00000100 .hidden __clz_tab
0001c604 g     O .bss	00000004 _PathLocale
00001fc8 g     F .text	00000014 atexit
000100d0 g     F .text	00000064 _write_r
00010894 g     F .text	0000007c setlocale
0001a9b4 g     O .rwdata	00000004 _impure_ptr
0001c5a8 g     O .bss	00000004 alt_argc
00005714 g     F .text	0000024c __sflush_r
000016a4 g     F .text	00000060 _do_dtors
00013738 g     F .text	00000158 .hidden __gttf2
00010d90 g     F .text	000011bc _svfiprintf_r
00010980 g     F .text	00000068 __ascii_mbtowc
00014b90 g     F .text	0000177c .hidden __subtf3
0000b0ec g     F .text	00000068 __ulp
00005f84 g     F .text	00000030 __fp_unlock_all
0001a994 g     O .rwdata	00000008 alt_fs_list
00000020 g       *ABS*	00000000 __ram_exceptions_start
000096c4 g     F .text	0000000c localeconv
00001d18 g     F .text	00000058 alt_timestamp
00009890 g     F .text	000000d8 __swhatbuf_r
00001724 g     F .text	00000054 alt_ic_isr_register
00000020 g       .exceptions	00000000 trap_vector
00017768 g     F .text	00000104 _write
0001a9c8 g       *ABS*	00000000 _edata
0001c6b4 g       *ABS*	00000000 _end
000104a0 g     F .text	000000f4 __fputwc
000002bc g       *ABS*	00000000 __ram_exceptions_end
0001c5e8 g     O .bss	00000001 __lock___at_quick_exit_mutex
00000dcc g     F .text	00000100 altera_avalon_jtag_uart_ioctl
00001cb4 g     F .text	00000024 intel_niosv_irq_init
0000bdf8 g     F .text	00000088 __swrite
0001a9c0 g     O .rwdata	00000004 __malloc_trim_threshold
00001fdc g     F .text	00000034 exit
00010454 g     F .text	0000004c fiprintf
0000eb9c g     F .text	00001424 _vfiprintf_r
00006994 g     F .text	000000b4 _fwalk_reent
0000ae9c g     F .text	00000250 __mdiff
00017054 g     F .text	000000f4 _kill
00020000 g       *ABS*	00000000 __alt_data_end
00018df0 g       *ABS*	00000000 __tbss_end
00005f30 g     F .text	0000000c __sfp_lock_release
00008320 g     F .text	00001318 _ldtoa_r
00018b5c g     O .rodata	00000101 _ctype_
00017560 g     F .text	00000108 _read
00017c7c g       *ABS*	00000000 __init_array_start
000096e0 g     F .text	00000004 __retarget_lock_acquire
000096f8 g     F .text	00000004 __retarget_lock_release
00016d54 g     F .text	00000040 _exit
00001334 g     F .text	0000016c alt_alarm_start
0001c5d8 g     O .bss	00000001 __lock___dd_hash_mutex
00009700 g     F .text	00000190 __smakebuf_r
0001c5dc g     O .bss	00000001 __lock___tz_mutex
00002534 g     F .text	0000008c strlen
00012234 g     F .text	0000005c _init_signal_r
000025d0 g     F .text	0000004c open
0001018c g     F .text	00000014 __assert
0000eb84 g     F .text	00000018 __sprint_r
00001704 g     F .text	00000020 alt_icache_flush_all
00001e18 g     F .text	0000005c alt_niosv_mtimecmp_set
000121e0 g     F .text	0000000c _wctomb_r
0000261c g     F .text	00002c10 _vfprintf_r
0000a7a0 g     F .text	000000e0 __lo0bits
0001a9ac g     O .rwdata	00000008 alt_alarm_list
00001644 g     F .text	00000060 _do_ctors
00012680 g     F .text	000000e0 __sigtramp
0001214c g     F .text	00000094 wcrtomb
0000bba4 g     F .text	000000b0 frexp
000025c0 g     F .text	00000010 close
0001a828 g     O .rwdata	0000016c __global_locale
00000670 g     F .text	0000006c alt_load
0000522c g     F .text	00000018 vfprintf
0001c5a0 g     O .bss	00000004 alt_niosv_software_interrupt_handler
000167fc g     F .text	000003a4 .hidden __trunctfdf2
0001c5f0 g     O .bss	00000001 __lock___sfp_recursive_mutex
00010660 g     F .text	000000f4 fputwc
000124c4 g     F .text	000000c4 raise
00016c74 g     F .text	000000e0 _close
00005f3c g     F .text	0000000c __sinit_lock_acquire
0000a4a8 g     F .text	0000014c __multadd
0000a484 g     F .text	00000024 _Bfree



Disassembly of section .entry:

00000000 <__reset>:
 * Jump to the _start entry point in the .text section if reset code
 * is allowed or if optimizing for RTL simulation.
 */

    /* Jump to the _start entry point in the .text section. */
    tail _start
   0:	5500006f          	j	550 <_start>
	...

Disassembly of section .exceptions:

00000020 <trap_vector>:
    /* Save caller-saved registers on the stack */

#if __riscv_flen == 32 // rv32if
    addi sp, sp, -36 * 4
#elif ALT_CPU_NUM_GPR == 32 // rv32i
    addi sp, sp, -16 * 4
  20:	fc010113          	addi	sp,sp,-64
#else // rv32e (16-bit)
    addi sp, sp, -10 * 4
#endif

    /* rv32e (16-bit), rv32i and rv32if */
    sw ra,  0 * 4(sp)
  24:	00112023          	sw	ra,0(sp)
    sw t0,  1 * 4(sp)
  28:	00512223          	sw	t0,4(sp)
    sw t1,  2 * 4(sp)
  2c:	00612423          	sw	t1,8(sp)
    sw t2,  3 * 4(sp)
  30:	00712623          	sw	t2,12(sp)
    sw a0,  4 * 4(sp)
  34:	00a12823          	sw	a0,16(sp)
    sw a1,  5 * 4(sp)
  38:	00b12a23          	sw	a1,20(sp)
    sw a2,  6 * 4(sp)
  3c:	00c12c23          	sw	a2,24(sp)
    sw a3,  7 * 4(sp)
  40:	00d12e23          	sw	a3,28(sp)
    sw a4,  8 * 4(sp)
  44:	02e12023          	sw	a4,32(sp)
    sw a5,  9 * 4(sp)
  48:	02f12223          	sw	a5,36(sp)

    /* rv32i and rv32if */
#if ALT_CPU_NUM_GPR == 32 
    sw a6, 10 * 4(sp)
  4c:	03012423          	sw	a6,40(sp)
    sw a7, 11 * 4(sp)
  50:	03112623          	sw	a7,44(sp)
    sw t3, 12 * 4(sp)
  54:	03c12823          	sw	t3,48(sp)
    sw t4, 13 * 4(sp)
  58:	03d12a23          	sw	t4,52(sp)
    sw t5, 14 * 4(sp)
  5c:	03e12c23          	sw	t5,56(sp)
    sw t6, 15 * 4(sp)
  60:	03f12e23          	sw	t6,60(sp)
    fsw fa6, 34 * 4(sp)
    fsw fa7, 35 * 4(sp)
#endif
    
    /* Call handle_trap to dispatch the correct handler, if available */
    csrr a0, mcause
  64:	34202573          	csrr	a0,mcause
    csrr a1, mepc
  68:	341025f3          	csrr	a1,mepc
    csrr a2, mtval
  6c:	34302673          	csrr	a2,mtval
    jal handle_trap
  70:	144000ef          	jal	ra,1b4 <handle_trap>
    csrw mepc, a0
  74:	34151073          	csrw	mepc,a0

    /* Restore caller-saved registers */

    /* rv32e (16-bit), rv32i and rv32if */
    lw ra,  0 * 4(sp)
  78:	00012083          	lw	ra,0(sp)
    lw t0,  1 * 4(sp)
  7c:	00412283          	lw	t0,4(sp)
    lw t1,  2 * 4(sp)
  80:	00812303          	lw	t1,8(sp)
    lw t2,  3 * 4(sp)
  84:	00c12383          	lw	t2,12(sp)
    lw a0,  4 * 4(sp)
  88:	01012503          	lw	a0,16(sp)
    lw a1,  5 * 4(sp)
  8c:	01412583          	lw	a1,20(sp)
    lw a2,  6 * 4(sp)
  90:	01812603          	lw	a2,24(sp)
    lw a3,  7 * 4(sp)
  94:	01c12683          	lw	a3,28(sp)
    lw a4,  8 * 4(sp)
  98:	02012703          	lw	a4,32(sp)
    lw a5,  9 * 4(sp)
  9c:	02412783          	lw	a5,36(sp)

    /* rv32i and rv32if */
#if ALT_CPU_NUM_GPR == 32	
    lw a6, 10 * 4(sp)
  a0:	02812803          	lw	a6,40(sp)
    lw a7, 11 * 4(sp)
  a4:	02c12883          	lw	a7,44(sp)
    lw t3, 12 * 4(sp)
  a8:	03012e03          	lw	t3,48(sp)
    lw t4, 13 * 4(sp)
  ac:	03412e83          	lw	t4,52(sp)
    lw t5, 14 * 4(sp)
  b0:	03812f03          	lw	t5,56(sp)
    lw t6, 15 * 4(sp)
  b4:	03c12f83          	lw	t6,60(sp)
#endif

#if __riscv_flen == 32 // rv32if
    addi sp, sp, 36 * 4
#elif ALT_CPU_NUM_GPR == 32 // rv32i
	addi sp, sp, 16 * 4
  b8:	04010113          	addi	sp,sp,64
    lw s0, 0(sp)
    lw s1, 4(sp)
    addi sp, sp, 8
#endif

    mret
  bc:	30200073          	mret

000000c0 <alt_irq_handler>:
 * This means that if there is never a call to alt_irq_register() then
 * this function will not get linked in to the executable. This is acceptable
 * since if no handler is ever registered, then an interrupt can never occur.
 */
void alt_irq_handler (void)
{
  c0:	fd010113          	addi	sp,sp,-48
  c4:	02112623          	sw	ra,44(sp)
  c8:	02812423          	sw	s0,40(sp)
  cc:	03010413          	addi	s0,sp,48
    alt_u32 i;

    /*
     * Notify the operating system that we are at interrupt level.
     */  
    ALT_OS_INT_ENTER();
  d0:	00000013          	nop
{
#if ALT_HAS_IRQ_SUPPORT
    alt_u32 active;
    alt_u32 enabled;

    NIOSV_READ_CSR(NIOSV_MIP_CSR, active);
  d4:	344027f3          	csrr	a5,mip
  d8:	fef42023          	sw	a5,-32(s0)
    NIOSV_READ_CSR(NIOSV_MIE_CSR, enabled);
  dc:	304027f3          	csrr	a5,mie
  e0:	fef42223          	sw	a5,-28(s0)

    // Since this is used by alt_irq_handler, we want to only process the upper 16-bits
    // --> the interrupt lines connected via Platform Designer...
    return (active & enabled) >> 16;
  e4:	fe042703          	lw	a4,-32(s0)
  e8:	fe442783          	lw	a5,-28(s0)
  ec:	00f777b3          	and	a5,a4,a5
  f0:	0107d793          	srli	a5,a5,0x10
     * reduced by finding out which interrupts are pending as late as possible.
     * Consider the case where the high priority interupt is asserted during
     * the interrupt entry sequence for a lower priority interrupt to see why
     * this is the case.
     */
    active = alt_irq_pending();
  f4:	fcf42a23          	sw	a5,-44(s0)

    do
    {
        i = 0;
  f8:	fc042e23          	sw	zero,-36(s0)
        mask = 1;
  fc:	00100793          	li	a5,1
 100:	fcf42c23          	sw	a5,-40(s0)
         * called to clear the interrupt condition.
         */

        do
        {
            if (active & mask)
 104:	fd442703          	lw	a4,-44(s0)
 108:	fd842783          	lw	a5,-40(s0)
 10c:	00f777b3          	and	a5,a4,a5
 110:	06078263          	beqz	a5,174 <alt_irq_handler+0xb4>
            {
                alt_irq[i].handler(alt_irq[i].context); 
 114:	0001c7b7          	lui	a5,0x1c
 118:	60c78713          	addi	a4,a5,1548 # 1c60c <alt_irq>
 11c:	fdc42783          	lw	a5,-36(s0)
 120:	00379793          	slli	a5,a5,0x3
 124:	00f707b3          	add	a5,a4,a5
 128:	0007a703          	lw	a4,0(a5)
 12c:	0001c7b7          	lui	a5,0x1c
 130:	60c78693          	addi	a3,a5,1548 # 1c60c <alt_irq>
 134:	fdc42783          	lw	a5,-36(s0)
 138:	00379793          	slli	a5,a5,0x3
 13c:	00f687b3          	add	a5,a3,a5
 140:	0047a783          	lw	a5,4(a5)
 144:	00078513          	mv	a0,a5
 148:	000700e7          	jalr	a4
                break;
 14c:	00000013          	nop
    NIOSV_READ_CSR(NIOSV_MIP_CSR, active);
 150:	344027f3          	csrr	a5,mip
 154:	fef42423          	sw	a5,-24(s0)
    NIOSV_READ_CSR(NIOSV_MIE_CSR, enabled);
 158:	304027f3          	csrr	a5,mie
 15c:	fef42623          	sw	a5,-20(s0)
    return (active & enabled) >> 16;
 160:	fe842703          	lw	a4,-24(s0)
 164:	fec42783          	lw	a5,-20(s0)
 168:	00f777b3          	and	a5,a4,a5
 16c:	0107d793          	srli	a5,a5,0x10
 170:	0200006f          	j	190 <alt_irq_handler+0xd0>
            }
            
            mask <<= 1;
 174:	fd842783          	lw	a5,-40(s0)
 178:	00179793          	slli	a5,a5,0x1
 17c:	fcf42c23          	sw	a5,-40(s0)
            i++;
 180:	fdc42783          	lw	a5,-36(s0)
 184:	00178793          	addi	a5,a5,1
 188:	fcf42e23          	sw	a5,-36(s0)
            if (active & mask)
 18c:	f79ff06f          	j	104 <alt_irq_handler+0x44>
            
        } while (1);

        active = alt_irq_pending();
 190:	fcf42a23          	sw	a5,-44(s0)
    
    } while (active);
 194:	fd442783          	lw	a5,-44(s0)
 198:	f60790e3          	bnez	a5,f8 <alt_irq_handler+0x38>

    /*
     * Notify the operating system that interrupt processing is complete.
     */ 

    ALT_OS_INT_EXIT();
 19c:	00000013          	nop
}
 1a0:	00000013          	nop
 1a4:	02c12083          	lw	ra,44(sp)
 1a8:	02812403          	lw	s0,40(sp)
 1ac:	03010113          	addi	sp,sp,48
 1b0:	00008067          	ret

000001b4 <handle_trap>:
{
 1b4:	fd010113          	addi	sp,sp,-48
 1b8:	02112623          	sw	ra,44(sp)
 1bc:	02812423          	sw	s0,40(sp)
 1c0:	03010413          	addi	s0,sp,48
 1c4:	fca42e23          	sw	a0,-36(s0)
 1c8:	fcb42c23          	sw	a1,-40(s0)
 1cc:	fcc42a23          	sw	a2,-44(s0)
    is_irq = (cause & NIOSV_MCAUSE_INTERRUPT_MASK);
 1d0:	fdc42703          	lw	a4,-36(s0)
 1d4:	800007b7          	lui	a5,0x80000
 1d8:	00f777b3          	and	a5,a4,a5
 1dc:	fef42423          	sw	a5,-24(s0)
    exception_code = (cause & ~NIOSV_MCAUSE_INTERRUPT_MASK);
 1e0:	fdc42703          	lw	a4,-36(s0)
 1e4:	800007b7          	lui	a5,0x80000
 1e8:	fff7c793          	not	a5,a5
 1ec:	00f777b3          	and	a5,a4,a5
 1f0:	fef42623          	sw	a5,-20(s0)
    if (is_irq) {
 1f4:	fe842783          	lw	a5,-24(s0)
 1f8:	08078863          	beqz	a5,288 <handle_trap+0xd4>
        switch (exception_code) {
 1fc:	fec42703          	lw	a4,-20(s0)
 200:	00300793          	li	a5,3
 204:	04f70063          	beq	a4,a5,244 <handle_trap+0x90>
 208:	fec42703          	lw	a4,-20(s0)
 20c:	00700793          	li	a5,7
 210:	06f71263          	bne	a4,a5,274 <handle_trap+0xc0>
                if (alt_niosv_timer_interrupt_handler) {
 214:	0001c7b7          	lui	a5,0x1c
 218:	5a47a783          	lw	a5,1444(a5) # 1c5a4 <alt_niosv_timer_interrupt_handler>
 21c:	06078a63          	beqz	a5,290 <handle_trap+0xdc>
                    ALT_OS_INT_ENTER();
 220:	00000013          	nop
                    alt_niosv_timer_interrupt_handler(cause, epc, tval);
 224:	0001c7b7          	lui	a5,0x1c
 228:	5a47a783          	lw	a5,1444(a5) # 1c5a4 <alt_niosv_timer_interrupt_handler>
 22c:	fd442603          	lw	a2,-44(s0)
 230:	fd842583          	lw	a1,-40(s0)
 234:	fdc42503          	lw	a0,-36(s0)
 238:	000780e7          	jalr	a5
                    ALT_OS_INT_EXIT();
 23c:	00000013          	nop
                break;
 240:	0500006f          	j	290 <handle_trap+0xdc>
                if (alt_niosv_software_interrupt_handler) {
 244:	0001c7b7          	lui	a5,0x1c
 248:	5a07a783          	lw	a5,1440(a5) # 1c5a0 <alt_niosv_software_interrupt_handler>
 24c:	04078663          	beqz	a5,298 <handle_trap+0xe4>
                    ALT_OS_INT_ENTER();
 250:	00000013          	nop
                    alt_niosv_software_interrupt_handler(cause, epc, tval);
 254:	0001c7b7          	lui	a5,0x1c
 258:	5a07a783          	lw	a5,1440(a5) # 1c5a0 <alt_niosv_software_interrupt_handler>
 25c:	fd442603          	lw	a2,-44(s0)
 260:	fd842583          	lw	a1,-40(s0)
 264:	fdc42503          	lw	a0,-36(s0)
 268:	000780e7          	jalr	a5
                    ALT_OS_INT_EXIT();
 26c:	00000013          	nop
                break;
 270:	0280006f          	j	298 <handle_trap+0xe4>
                if (exception_code >= 16) {
 274:	fec42703          	lw	a4,-20(s0)
 278:	00f00793          	li	a5,15
 27c:	02e7f263          	bgeu	a5,a4,2a0 <handle_trap+0xec>
                    alt_irq_handler();
 280:	e41ff0ef          	jal	ra,c0 <alt_irq_handler>
                break;
 284:	01c0006f          	j	2a0 <handle_trap+0xec>
            NIOSV_EBREAK();
 288:	00100073          	ebreak
 28c:	0180006f          	j	2a4 <handle_trap+0xf0>
                break;
 290:	00000013          	nop
 294:	0100006f          	j	2a4 <handle_trap+0xf0>
                break;
 298:	00000013          	nop
 29c:	0080006f          	j	2a4 <handle_trap+0xf0>
                break;
 2a0:	00000013          	nop
    return epc;
 2a4:	fd842783          	lw	a5,-40(s0)
}
 2a8:	00078513          	mv	a0,a5
 2ac:	02c12083          	lw	ra,44(sp)
 2b0:	02812403          	lw	s0,40(sp)
 2b4:	03010113          	addi	sp,sp,48
 2b8:	00008067          	ret

Disassembly of section .text:

000002bc <main>:

//To test part of the memory, for example, to test the first 1/10 of the memory:
//#define Testing_MAXNUM_WORDS   SDRAM_CONTROLLER_0_SPAN/20


int main() {
     2bc:	fd010113          	addi	sp,sp,-48
     2c0:	02112623          	sw	ra,44(sp)
     2c4:	02812423          	sw	s0,40(sp)
     2c8:	03010413          	addi	s0,sp,48
	printf("Hello from MT3TB4 Group 14!\n\n\n");
     2cc:	000187b7          	lui	a5,0x18
     2d0:	c9078513          	addi	a0,a5,-880 # 17c90 <__flash_rodata_start>
     2d4:	09c020ef          	jal	ra,2370 <puts>
	printf("Testing %d  words out of Maximum %d words On SDRAM......\n\n\n", Testing_MAXNUM_WORDS, SDRAM_MAXNUM_WORDS);
     2d8:	02000637          	lui	a2,0x2000
     2dc:	020005b7          	lui	a1,0x2000
     2e0:	000187b7          	lui	a5,0x18
     2e4:	cb078513          	addi	a0,a5,-848 # 17cb0 <__flash_rodata_start+0x20>
     2e8:	70d010ef          	jal	ra,21f4 <printf>

	int i;
	int char_err_num = 0, short_err_num = 0, int_err_num = 0;
     2ec:	fc042c23          	sw	zero,-40(s0)
     2f0:	fc042e23          	sw	zero,-36(s0)
     2f4:	fe042023          	sw	zero,-32(s0)
	short aShort;
	int *int_ptr;
	int aInt;

	int charsize, shortsize, intsize;
	charsize = sizeof(aChar);
     2f8:	00100793          	li	a5,1
     2fc:	fef42223          	sw	a5,-28(s0)
	shortsize = sizeof(aShort);
     300:	00200793          	li	a5,2
     304:	fef42423          	sw	a5,-24(s0)
	intsize = sizeof(aInt);
     308:	00400793          	li	a5,4
     30c:	fef42623          	sw	a5,-20(s0)

	printf("the sizeof char, short, int in bytes are: %d, %d, %d\n", charsize, shortsize, intsize);
     310:	fec42683          	lw	a3,-20(s0)
     314:	fe842603          	lw	a2,-24(s0)
     318:	fe442583          	lw	a1,-28(s0)
     31c:	000187b7          	lui	a5,0x18
     320:	cec78513          	addi	a0,a5,-788 # 17cec <__flash_rodata_start+0x5c>
     324:	6d1010ef          	jal	ra,21f4 <printf>


	//----------------TEST CHAR-----------------------------------

	printf("\n writing chars.....\n");
     328:	000187b7          	lui	a5,0x18
     32c:	d2478513          	addi	a0,a5,-732 # 17d24 <__flash_rodata_start+0x94>
     330:	040020ef          	jal	ra,2370 <puts>
	for (i = 1; i <= Testing_MAXNUM_WORDS * 2; i++) {
     334:	00100793          	li	a5,1
     338:	fcf42a23          	sw	a5,-44(s0)
     33c:	0440006f          	j	380 <main+0xc4>
		*(char*) (BASE + i) = i % 128; // to be safe, use 128 rather than 256
     340:	fd442703          	lw	a4,-44(s0)
     344:	41f75793          	srai	a5,a4,0x1f
     348:	0197d793          	srli	a5,a5,0x19
     34c:	00f70733          	add	a4,a4,a5
     350:	07f77713          	andi	a4,a4,127
     354:	40f707b3          	sub	a5,a4,a5
     358:	00078693          	mv	a3,a5
     35c:	fd442703          	lw	a4,-44(s0)
     360:	040007b7          	lui	a5,0x4000
     364:	00f707b3          	add	a5,a4,a5
     368:	00078713          	mv	a4,a5
     36c:	0ff6f793          	zext.b	a5,a3
     370:	00f70023          	sb	a5,0(a4)
	for (i = 1; i <= Testing_MAXNUM_WORDS * 2; i++) {
     374:	fd442783          	lw	a5,-44(s0)
     378:	00178793          	addi	a5,a5,1 # 4000001 <__alt_data_end+0x3fe0001>
     37c:	fcf42a23          	sw	a5,-44(s0)
     380:	fd442703          	lw	a4,-44(s0)
     384:	040007b7          	lui	a5,0x4000
     388:	fae7dce3          	bge	a5,a4,340 <main+0x84>
	}

	printf("\n testing chars.....\n");
     38c:	000187b7          	lui	a5,0x18
     390:	d3c78513          	addi	a0,a5,-708 # 17d3c <__flash_rodata_start+0xac>
     394:	7dd010ef          	jal	ra,2370 <puts>
	for (i = 1; i <= Testing_MAXNUM_WORDS * 2; i++) {
     398:	00100793          	li	a5,1
     39c:	fcf42a23          	sw	a5,-44(s0)
     3a0:	04c0006f          	j	3ec <main+0x130>
		if (*(char*) (BASE + i) != i % 128) { // or .....(char)i,   if not i%128
     3a4:	fd442703          	lw	a4,-44(s0)
     3a8:	040007b7          	lui	a5,0x4000
     3ac:	00f707b3          	add	a5,a4,a5
     3b0:	0007c783          	lbu	a5,0(a5) # 4000000 <__alt_data_end+0x3fe0000>
     3b4:	00078693          	mv	a3,a5
     3b8:	fd442703          	lw	a4,-44(s0)
     3bc:	41f75793          	srai	a5,a4,0x1f
     3c0:	0197d793          	srli	a5,a5,0x19
     3c4:	00f70733          	add	a4,a4,a5
     3c8:	07f77713          	andi	a4,a4,127
     3cc:	40f707b3          	sub	a5,a4,a5
     3d0:	00f68863          	beq	a3,a5,3e0 <main+0x124>
			char_err_num++;
     3d4:	fd842783          	lw	a5,-40(s0)
     3d8:	00178793          	addi	a5,a5,1
     3dc:	fcf42c23          	sw	a5,-40(s0)
	for (i = 1; i <= Testing_MAXNUM_WORDS * 2; i++) {
     3e0:	fd442783          	lw	a5,-44(s0)
     3e4:	00178793          	addi	a5,a5,1
     3e8:	fcf42a23          	sw	a5,-44(s0)
     3ec:	fd442703          	lw	a4,-44(s0)
     3f0:	040007b7          	lui	a5,0x4000
     3f4:	fae7d8e3          	bge	a5,a4,3a4 <main+0xe8>
		}
	}
	printf("\nTesting  Char: the total numbers of error is : %i\n", char_err_num);
     3f8:	fd842583          	lw	a1,-40(s0)
     3fc:	000187b7          	lui	a5,0x18
     400:	d5478513          	addi	a0,a5,-684 # 17d54 <__flash_rodata_start+0xc4>
     404:	5f1010ef          	jal	ra,21f4 <printf>


	//----------------TEST SHORT-----------------------------------

	printf(" \n writing short......\n");
     408:	000187b7          	lui	a5,0x18
     40c:	d8878513          	addi	a0,a5,-632 # 17d88 <__flash_rodata_start+0xf8>
     410:	761010ef          	jal	ra,2370 <puts>
	for (i = 1; i <= Testing_MAXNUM_WORDS; i++) {
     414:	00100793          	li	a5,1
     418:	fcf42a23          	sw	a5,-44(s0)
     41c:	0400006f          	j	45c <main+0x1a0>
		*(short*) (BASE + i * 2) = i % 32767; // short, uses two bytes
     420:	fd442703          	lw	a4,-44(s0)
     424:	000087b7          	lui	a5,0x8
     428:	fff78793          	addi	a5,a5,-1 # 7fff <emul+0x1af>
     42c:	02f766b3          	rem	a3,a4,a5
     430:	fd442703          	lw	a4,-44(s0)
     434:	020007b7          	lui	a5,0x2000
     438:	00f707b3          	add	a5,a4,a5
     43c:	00179793          	slli	a5,a5,0x1
     440:	00078713          	mv	a4,a5
     444:	01069793          	slli	a5,a3,0x10
     448:	4107d793          	srai	a5,a5,0x10
     44c:	00f71023          	sh	a5,0(a4)
	for (i = 1; i <= Testing_MAXNUM_WORDS; i++) {
     450:	fd442783          	lw	a5,-44(s0)
     454:	00178793          	addi	a5,a5,1 # 2000001 <__alt_data_end+0x1fe0001>
     458:	fcf42a23          	sw	a5,-44(s0)
     45c:	fd442703          	lw	a4,-44(s0)
     460:	020007b7          	lui	a5,0x2000
     464:	fae7dee3          	bge	a5,a4,420 <main+0x164>
	}

	printf(" \n testing short......\n");
     468:	000187b7          	lui	a5,0x18
     46c:	da078513          	addi	a0,a5,-608 # 17da0 <__flash_rodata_start+0x110>
     470:	701010ef          	jal	ra,2370 <puts>

//
//
//

	printf("\nTesting Short: the total numbers of error is : %i\n",
     474:	fdc42583          	lw	a1,-36(s0)
     478:	000187b7          	lui	a5,0x18
     47c:	db878513          	addi	a0,a5,-584 # 17db8 <__flash_rodata_start+0x128>
     480:	575010ef          	jal	ra,21f4 <printf>
			short_err_num);

	//----------------TEST INT    -----------------------------------

	printf(" \n writing integer......\n");
     484:	000187b7          	lui	a5,0x18
     488:	dec78513          	addi	a0,a5,-532 # 17dec <__flash_rodata_start+0x15c>
     48c:	6e5010ef          	jal	ra,2370 <puts>
	for (i = 1; i <= Testing_MAXNUM_WORDS / 2; i++) {
     490:	00100793          	li	a5,1
     494:	fcf42a23          	sw	a5,-44(s0)
     498:	02c0006f          	j	4c4 <main+0x208>
		*(int*) (BASE + i * 4) = i; // int, use 4 bytes
     49c:	fd442703          	lw	a4,-44(s0)
     4a0:	010007b7          	lui	a5,0x1000
     4a4:	00f707b3          	add	a5,a4,a5
     4a8:	00279793          	slli	a5,a5,0x2
     4ac:	00078713          	mv	a4,a5
     4b0:	fd442783          	lw	a5,-44(s0)
     4b4:	00f72023          	sw	a5,0(a4)
	for (i = 1; i <= Testing_MAXNUM_WORDS / 2; i++) {
     4b8:	fd442783          	lw	a5,-44(s0)
     4bc:	00178793          	addi	a5,a5,1 # 1000001 <__alt_data_end+0xfe0001>
     4c0:	fcf42a23          	sw	a5,-44(s0)
     4c4:	fd442703          	lw	a4,-44(s0)
     4c8:	010007b7          	lui	a5,0x1000
     4cc:	fce7d8e3          	bge	a5,a4,49c <main+0x1e0>

	}


	printf(" \n testing integer......\n");
     4d0:	000187b7          	lui	a5,0x18
     4d4:	e0878513          	addi	a0,a5,-504 # 17e08 <__flash_rodata_start+0x178>
     4d8:	699010ef          	jal	ra,2370 <puts>

//
//
//

	printf("\nTesting int: the total numbers of error is : %i\n", int_err_num);
     4dc:	fe042583          	lw	a1,-32(s0)
     4e0:	000187b7          	lui	a5,0x18
     4e4:	e2478513          	addi	a0,a5,-476 # 17e24 <__flash_rodata_start+0x194>
     4e8:	50d010ef          	jal	ra,21f4 <printf>


	printf("\nMemory test complete. # Char errors: %i. # Short errors: %i. # int errors: %i.", char_err_num, short_err_num, int_err_num);
     4ec:	fe042683          	lw	a3,-32(s0)
     4f0:	fdc42603          	lw	a2,-36(s0)
     4f4:	fd842583          	lw	a1,-40(s0)
     4f8:	000187b7          	lui	a5,0x18
     4fc:	e5878513          	addi	a0,a5,-424 # 17e58 <__flash_rodata_start+0x1c8>
     500:	4f5010ef          	jal	ra,21f4 <printf>

	if(!char_err_num && !short_err_num && !int_err_num == 1){
     504:	fd842783          	lw	a5,-40(s0)
     508:	02079263          	bnez	a5,52c <main+0x270>
     50c:	fdc42783          	lw	a5,-36(s0)
     510:	00079e63          	bnez	a5,52c <main+0x270>
     514:	fe042783          	lw	a5,-32(s0)
     518:	00079a63          	bnez	a5,52c <main+0x270>
		printf("\nMemory test passed.");
     51c:	000187b7          	lui	a5,0x18
     520:	ea878513          	addi	a0,a5,-344 # 17ea8 <__flash_rodata_start+0x218>
     524:	4d1010ef          	jal	ra,21f4 <printf>
     528:	0100006f          	j	538 <main+0x27c>
	}else{
		printf("\nMemory test failed.");
     52c:	000187b7          	lui	a5,0x18
     530:	ec078513          	addi	a0,a5,-320 # 17ec0 <__flash_rodata_start+0x230>
     534:	4c1010ef          	jal	ra,21f4 <printf>
	}

	return 0;
     538:	00000793          	li	a5,0
}
     53c:	00078513          	mv	a0,a5
     540:	02c12083          	lw	ra,44(sp)
     544:	02812403          	lw	s0,40(sp)
     548:	03010113          	addi	sp,sp,48
     54c:	00008067          	ret

00000550 <_start>:
    .type _start, @function
_start:
#if ALT_CPU_HAS_CSR_SUPPORT
    /* assume that we are in machine mode on startup */
    /* setup trap to catch anything that goes wrong early in the boot process */
    la t0, trap_vector
     550:	00000297          	auipc	t0,0x0
     554:	ad028293          	addi	t0,t0,-1328 # 20 <__flash_exceptions_start>
    csrw mtvec, t0
     558:	30529073          	csrw	mtvec,t0

    /* disable all interrupt */
    li t0, 0x88
     55c:	08800293          	li	t0,136
    csrc mstatus, t0
     560:	3002b073          	csrc	mstatus,t0
    csrw mie, zero
     564:	30401073          	csrw	mie,zero
    csrw mip, zero
     568:	34401073          	csrw	mip,zero
 * RTL simulations can ensure the data cache tag RAM is already
 * initialized so skipping this speeds up RTL simulation.
 */
#ifndef ALT_SIM_OPTIMIZE
#if ALT_CPU_DCACHE_SIZE > 0
    li t0, ALT_CPU_DCACHE_SIZE
     56c:	000012b7          	lui	t0,0x1
0:
    /* cbo.inval.ix */
    .insn i 0x0F, 0x2, zero, t0, 0x080
     570:	0802a00f          	.4byte	0x802a00f
    addi t0, t0, -ALT_CPU_DCACHE_LINE_SIZE
     574:	fe028293          	addi	t0,t0,-32 # fe0 <altera_avalon_jtag_uart_read+0x114>
    bnez t0, 0b
     578:	fe029ce3          	bnez	t0,570 <_start+0x20>
#endif /* Initialize Data Cache */
#endif /* ALT_SIM_OPTIMIZE */

    .option push
    .option norelax
    la gp, __global_pointer$
     57c:	0001b197          	auipc	gp,0x1b
     580:	c1818193          	addi	gp,gp,-1000 # 1b194 <__global_pointer$>

    /*
     * Now that the caches are initialized, set up the stack pointer and global pointer.
     * The values provided by the linker are assumed to be correctly aligned.
     */
    la sp, __alt_stack_pointer
     584:	00020117          	auipc	sp,0x20
     588:	a7c10113          	addi	sp,sp,-1412 # 20000 <__alt_data_end>
    /* Log that the BSS is about to be cleared. */
#ifdef ALT_LOG_ENABLE
    ALT_LOG_PUTS(alt_log_msg_bss)
#endif /* ALT_LOG_ENABLE */

    la t1, __bss_start
     58c:	0001c317          	auipc	t1,0x1c
     590:	01430313          	addi	t1,t1,20 # 1c5a0 <alt_niosv_software_interrupt_handler>
    la t2, __bss_end
     594:	0001c397          	auipc	t2,0x1c
     598:	12038393          	addi	t2,t2,288 # 1c6b4 <__alt_heap_start>
0:
    sw zero, (t1)
     59c:	00032023          	sw	zero,0(t1)
    addi t1, t1, 4
     5a0:	00430313          	addi	t1,t1,4
    bltu t1, t2, 0b
     5a4:	fe736ce3          	bltu	t1,t2,59c <_start+0x4c>
/*
 * The alt_load() facility is normally used when there is no bootloader.
 * It copies some sections into RAM so it acts like a mini-bootloader.
 */
#ifdef CALL_ALT_LOAD
    call alt_load
     5a8:	0c8000ef          	jal	ra,670 <alt_load>
 */
#ifndef ALT_SIM_OPTIMIZE
.globl __tbss_start
.globl __tbss_end

    la t1, __tbss_start
     5ac:	00019317          	auipc	t1,0x19
     5b0:	84430313          	addi	t1,t1,-1980 # 18df0 <jtag_uart_0>
    la t2, __tbss_end
     5b4:	00019397          	auipc	t2,0x19
     5b8:	83c38393          	addi	t2,t2,-1988 # 18df0 <jtag_uart_0>
    
    // Check if we need to skip this (if .tbss is empty)
    bgeu t1, t2, 1f
     5bc:	00737863          	bgeu	t1,t2,5cc <_start+0x7c>
0:
    sw zero, (t1)
     5c0:	00032023          	sw	zero,0(t1)
    addi t1, t1, 4
     5c4:	00430313          	addi	t1,t1,4
    bltu t1, t2, 0b
     5c8:	fe736ce3          	bltu	t1,t2,5c0 <_start+0x70>
// Copy tdata to tdata golden source location
.globl __tdata_start
.globl __tdata_end
.globl __tdata_source

    la t0, __tdata_start
     5cc:	00019297          	auipc	t0,0x19
     5d0:	82428293          	addi	t0,t0,-2012 # 18df0 <jtag_uart_0>
    la t1, __tdata_end
     5d4:	00019317          	auipc	t1,0x19
     5d8:	81c30313          	addi	t1,t1,-2020 # 18df0 <jtag_uart_0>
    la t2, __tdata_source
     5dc:	00019397          	auipc	t2,0x19
     5e0:	81438393          	addi	t2,t2,-2028 # 18df0 <jtag_uart_0>

    // Check if we need to skip this (if .tdata is empty)
    bgeu t0, t1, 1f
     5e4:	0062fc63          	bgeu	t0,t1,5fc <_start+0xac>
0:
    lw s1, (t0)
     5e8:	0002a483          	lw	s1,0(t0)
    sw s1, (t2)
     5ec:	0093a023          	sw	s1,0(t2)
    addi t0, t0, 4
     5f0:	00428293          	addi	t0,t0,4
    addi t2, t2, 4
     5f4:	00438393          	addi	t2,t2,4
    bltu t0, t1, 0b
     5f8:	fe62e8e3          	bltu	t0,t1,5e8 <_start+0x98>
1:

// Assign thread pointer register (tp) to main thread tls base
.globl __tls_base
    la tp, __tls_base
     5fc:	00018217          	auipc	tp,0x18
     600:	7f420213          	addi	tp,tp,2036 # 18df0 <jtag_uart_0>
#ifdef ALT_LOG_ENABLE
    ALT_LOG_PUTS(alt_log_msg_alt_main)
#endif /* ALT_LOG_ENABLE */

    /* Call the C entry point. It should never return. */
    call alt_main
     604:	0d8000ef          	jal	ra,6dc <alt_main>

00000608 <alt_after_alt_main>:

    /* Wait in infinite loop in case alt_main does return. */
alt_after_alt_main:
    j alt_after_alt_main
     608:	0000006f          	j	608 <alt_after_alt_main>

0000060c <alt_load_section>:
     60c:	fe010113          	addi	sp,sp,-32
     610:	00812e23          	sw	s0,28(sp)
 */

static void ALT_INLINE alt_load_section (alt_u32* from, 
                                         alt_u32* to, 
                                         alt_u32* end)
{
     614:	02010413          	addi	s0,sp,32
     618:	fea42623          	sw	a0,-20(s0)
     61c:	feb42423          	sw	a1,-24(s0)
     620:	fec42223          	sw	a2,-28(s0)
  if (to != from)
     624:	fe842703          	lw	a4,-24(s0)
     628:	fec42783          	lw	a5,-20(s0)
     62c:	02f70a63          	beq	a4,a5,660 <alt_load_section+0x54>
  {
    while( to != end )
     630:	0240006f          	j	654 <alt_load_section+0x48>
    {
      *to++ = *from++;
     634:	fec42703          	lw	a4,-20(s0)
     638:	00470793          	addi	a5,a4,4
     63c:	fef42623          	sw	a5,-20(s0)
     640:	fe842783          	lw	a5,-24(s0)
     644:	00478693          	addi	a3,a5,4
     648:	fed42423          	sw	a3,-24(s0)
     64c:	00072703          	lw	a4,0(a4)
     650:	00e7a023          	sw	a4,0(a5)
    while( to != end )
     654:	fe842703          	lw	a4,-24(s0)
     658:	fe442783          	lw	a5,-28(s0)
     65c:	fcf71ce3          	bne	a4,a5,634 <alt_load_section+0x28>
    }
  }
}
     660:	00000013          	nop
     664:	01c12403          	lw	s0,28(sp)
     668:	02010113          	addi	sp,sp,32
     66c:	00008067          	ret

00000670 <alt_load>:
 * there is no bootloader, so this application is responsible for loading to
 * RAM any sections that are required.
 */  

void alt_load (void)
{
     670:	ff010113          	addi	sp,sp,-16
     674:	00112623          	sw	ra,12(sp)
     678:	00812423          	sw	s0,8(sp)
     67c:	01010413          	addi	s0,sp,16
  /* 
   * Copy the .rwdata section. 
   */

  alt_load_section (&__flash_rwdata_start, 
     680:	83418613          	addi	a2,gp,-1996 # 1a9c8 <__flash_rwdata_start>
     684:	000197b7          	lui	a5,0x19
     688:	df078593          	addi	a1,a5,-528 # 18df0 <jtag_uart_0>
     68c:	83418513          	addi	a0,gp,-1996 # 1a9c8 <__flash_rwdata_start>
     690:	f7dff0ef          	jal	ra,60c <alt_load_section>

  /*
   * Copy the exception handler.
   */

  alt_load_section (&__flash_exceptions_start, 
     694:	2bc00613          	li	a2,700
     698:	02000593          	li	a1,32
     69c:	02000513          	li	a0,32
     6a0:	f6dff0ef          	jal	ra,60c <alt_load_section>

  /*
   * Copy the .rodata section.
   */

  alt_load_section (&__flash_rodata_start, 
     6a4:	000197b7          	lui	a5,0x19
     6a8:	df078613          	addi	a2,a5,-528 # 18df0 <jtag_uart_0>
     6ac:	000187b7          	lui	a5,0x18
     6b0:	c9078593          	addi	a1,a5,-880 # 17c90 <__flash_rodata_start>
     6b4:	000187b7          	lui	a5,0x18
     6b8:	c9078513          	addi	a0,a5,-880 # 17c90 <__flash_rodata_start>
     6bc:	f51ff0ef          	jal	ra,60c <alt_load_section>
  
  /*
   * Now ensure that the caches are in synch.
   */
  
  alt_dcache_flush_all();
     6c0:	5e1000ef          	jal	ra,14a0 <alt_dcache_flush_all>
  alt_icache_flush_all();
     6c4:	040010ef          	jal	ra,1704 <alt_icache_flush_all>
}
     6c8:	00000013          	nop
     6cc:	00c12083          	lw	ra,12(sp)
     6d0:	00812403          	lw	s0,8(sp)
     6d4:	01010113          	addi	sp,sp,16
     6d8:	00008067          	ret

000006dc <alt_main>:
 * devices/filesystems/components in the system; and call the entry point for
 * the users application, i.e. main().
 */

void alt_main (void)
{
     6dc:	fe010113          	addi	sp,sp,-32
     6e0:	00112e23          	sw	ra,28(sp)
     6e4:	00812c23          	sw	s0,24(sp)
     6e8:	02010413          	addi	s0,sp,32
#endif

  /* ALT LOG - please see HAL/sys/alt_log_printf.h for details */
  ALT_LOG_PRINT_BOOT("[alt_main.c] Entering alt_main, calling alt_irq_init.\r\n");
  /* Initialize the interrupt controller. */
  alt_irq_init (NULL);
     6ec:	00000513          	li	a0,0
     6f0:	074000ef          	jal	ra,764 <alt_irq_init>

  /* Initialize the operating system */
  ALT_LOG_PRINT_BOOT("[alt_main.c] Done alt_irq_init, calling alt_os_init.\r\n");
  ALT_OS_INIT();
     6f4:	00000013          	nop
  ALT_LOG_PRINT_BOOT("[alt_main.c] Done OS Init, calling alt_sem_create.\r\n");
  ALT_SEM_CREATE (&alt_fd_list_lock, 1);

  /* Initialize the device drivers/software components. */
  ALT_LOG_PRINT_BOOT("[alt_main.c] Calling alt_sys_init.\r\n");
  alt_sys_init();
     6f8:	0a4000ef          	jal	ra,79c <alt_sys_init>
   * devices be present (not equal to /dev/null) and if direct drivers
   * aren't being used.
   */

    ALT_LOG_PRINT_BOOT("[alt_main.c] Redirecting IO.\r\n");
    alt_io_redirect(ALT_STDOUT, ALT_STDIN, ALT_STDERR);
     6fc:	000187b7          	lui	a5,0x18
     700:	ed878613          	addi	a2,a5,-296 # 17ed8 <__flash_rodata_start+0x248>
     704:	000187b7          	lui	a5,0x18
     708:	ed878593          	addi	a1,a5,-296 # 17ed8 <__flash_rodata_start+0x248>
     70c:	000187b7          	lui	a5,0x18
     710:	ed878513          	addi	a0,a5,-296 # 17ed8 <__flash_rodata_start+0x248>
     714:	2bc010ef          	jal	ra,19d0 <alt_io_redirect>
  /* 
   * Call the C++ constructors 
   */

  ALT_LOG_PRINT_BOOT("[alt_main.c] Calling C++ constructors.\r\n");
  _do_ctors ();
     718:	72d000ef          	jal	ra,1644 <_do_ctors>
   * redefined as _exit()). This is in the interest of reducing code footprint,
   * in that the atexit() overhead is removed when it's not needed.
   */

  ALT_LOG_PRINT_BOOT("[alt_main.c] Calling atexit.\r\n");
  atexit (_do_dtors);
     71c:	000017b7          	lui	a5,0x1
     720:	6a478513          	addi	a0,a5,1700 # 16a4 <_do_dtors>
     724:	0a5010ef          	jal	ra,1fc8 <atexit>
  ALT_LOG_PRINT_BOOT("[alt_main.c] Calling main.\r\n");

#ifdef ALT_NO_EXIT
  main (alt_argc, alt_argv, alt_envp);
#else
  result = main (alt_argc, alt_argv, alt_envp);
     728:	0001c7b7          	lui	a5,0x1c
     72c:	5a87a703          	lw	a4,1448(a5) # 1c5a8 <alt_argc>
     730:	0001c7b7          	lui	a5,0x1c
     734:	5ac7a683          	lw	a3,1452(a5) # 1c5ac <alt_argv>
     738:	0001c7b7          	lui	a5,0x1c
     73c:	5b07a783          	lw	a5,1456(a5) # 1c5b0 <alt_envp>
     740:	00078613          	mv	a2,a5
     744:	00068593          	mv	a1,a3
     748:	00070513          	mv	a0,a4
     74c:	b71ff0ef          	jal	ra,2bc <main>
     750:	fea42623          	sw	a0,-20(s0)
  close(STDOUT_FILENO);
     754:	00100513          	li	a0,1
     758:	669010ef          	jal	ra,25c0 <close>
  exit (result);
     75c:	fec42503          	lw	a0,-20(s0)
     760:	07d010ef          	jal	ra,1fdc <exit>

00000764 <alt_irq_init>:
 * The "base" parameter is ignored and only
 * present for backwards-compatibility.
 */

void alt_irq_init ( const void* base )
{
     764:	fe010113          	addi	sp,sp,-32
     768:	00112e23          	sw	ra,28(sp)
     76c:	00812c23          	sw	s0,24(sp)
     770:	02010413          	addi	s0,sp,32
     774:	fea42623          	sw	a0,-20(s0)
    INTEL_NIOSV_G_IRQ_INIT ( INTEL_NIOSV_G_0, intel_niosv_g_0);
     778:	53c010ef          	jal	ra,1cb4 <intel_niosv_irq_init>
    NIOSV_SET_CSR(NIOSV_MSTATUS_CSR, NIOSV_MSTATUS_MIE_MASK);
     77c:	00800793          	li	a5,8
     780:	3007a073          	csrs	mstatus,a5
}
     784:	00000013          	nop
    alt_irq_cpu_enable_interrupts();
}
     788:	00000013          	nop
     78c:	01c12083          	lw	ra,28(sp)
     790:	01812403          	lw	s0,24(sp)
     794:	02010113          	addi	sp,sp,32
     798:	00008067          	ret

0000079c <alt_sys_init>:
 * Initialize the non-interrupt controller devices.
 * Called after alt_irq_init().
 */

void alt_sys_init( void )
{
     79c:	fe010113          	addi	sp,sp,-32
     7a0:	00112e23          	sw	ra,28(sp)
     7a4:	00812c23          	sw	s0,24(sp)
     7a8:	02010413          	addi	s0,sp,32
    ALTERA_AVALON_JTAG_UART_INIT ( JTAG_UART_0, jtag_uart_0);
     7ac:	00300613          	li	a2,3
     7b0:	00000593          	li	a1,0
     7b4:	000197b7          	lui	a5,0x19
     7b8:	e1878513          	addi	a0,a5,-488 # 18e18 <jtag_uart_0+0x28>
     7bc:	1f0000ef          	jal	ra,9ac <altera_avalon_jtag_uart_init>
     7c0:	000197b7          	lui	a5,0x19
     7c4:	df078513          	addi	a0,a5,-528 # 18df0 <jtag_uart_0>
     7c8:	54d000ef          	jal	ra,1514 <alt_dev_reg>
     7cc:	3e800793          	li	a5,1000
     7d0:	fef42623          	sw	a5,-20(s0)
 * in order to initialise the value of the clock frequency.
 */

static ALT_INLINE int ALT_ALWAYS_INLINE alt_sysclk_init (alt_u32 nticks)
{
  if (! _alt_tick_rate)
     7d4:	0001c7b7          	lui	a5,0x1c
     7d8:	5b87a783          	lw	a5,1464(a5) # 1c5b8 <_alt_tick_rate>
     7dc:	00079a63          	bnez	a5,7f0 <alt_sys_init+0x54>
  {
    _alt_tick_rate = nticks;
     7e0:	0001c7b7          	lui	a5,0x1c
     7e4:	fec42703          	lw	a4,-20(s0)
     7e8:	5ae7ac23          	sw	a4,1464(a5) # 1c5b8 <_alt_tick_rate>
    return 0;
     7ec:	0080006f          	j	7f4 <alt_sys_init+0x58>
  }
  else
  {
    return -1;
     7f0:	00000013          	nop
     7f4:	000027b7          	lui	a5,0x2
     7f8:	ee078793          	addi	a5,a5,-288 # 1ee0 <alt_niosv_timer_sc_isr>
     7fc:	fef42423          	sw	a5,-24(s0)
alt_u64 alt_niosv_mtimecmp_get();
void alt_niosv_mtimecmp_interrupt_init();
extern alt_niosv_timer_isr_t alt_niosv_timer_interrupt_handler;

static ALT_INLINE void ALT_ALWAYS_INLINE alt_niosv_register_mtimecmp_interrupt_handle(alt_niosv_timer_isr_t handle) {
    alt_niosv_timer_interrupt_handler = handle;
     800:	0001c7b7          	lui	a5,0x1c
     804:	fe842703          	lw	a4,-24(s0)
     808:	5ae7a223          	sw	a4,1444(a5) # 1c5a4 <alt_niosv_timer_interrupt_handler>
}
     80c:	00000013          	nop
    INTEL_NIOSV_G_INIT ( INTEL_NIOSV_G_0, intel_niosv_g_0);
     810:	77c010ef          	jal	ra,1f8c <alt_niosv_mtimecmp_interrupt_init>
     814:	00000613          	li	a2,0
     818:	00000593          	li	a1,0
     81c:	00000513          	li	a0,0
     820:	6c0010ef          	jal	ra,1ee0 <alt_niosv_timer_sc_isr>
}
     824:	00000013          	nop
     828:	01c12083          	lw	ra,28(sp)
     82c:	01812403          	lw	s0,24(sp)
     830:	02010113          	addi	sp,sp,32
     834:	00008067          	ret

00000838 <altera_avalon_jtag_uart_read_fd>:
 *
 */

int 
altera_avalon_jtag_uart_read_fd(alt_fd* fd, char* buffer, int space)
{
     838:	fd010113          	addi	sp,sp,-48
     83c:	02112623          	sw	ra,44(sp)
     840:	02812423          	sw	s0,40(sp)
     844:	03010413          	addi	s0,sp,48
     848:	fca42e23          	sw	a0,-36(s0)
     84c:	fcb42c23          	sw	a1,-40(s0)
     850:	fcc42a23          	sw	a2,-44(s0)
    altera_avalon_jtag_uart_dev* dev = (altera_avalon_jtag_uart_dev*) fd->dev; 
     854:	fdc42783          	lw	a5,-36(s0)
     858:	0007a783          	lw	a5,0(a5)
     85c:	fef42623          	sw	a5,-20(s0)

    return altera_avalon_jtag_uart_read(&dev->state, buffer, space,
     860:	fec42783          	lw	a5,-20(s0)
     864:	02878713          	addi	a4,a5,40
     868:	fdc42783          	lw	a5,-36(s0)
     86c:	0087a783          	lw	a5,8(a5)
     870:	00078693          	mv	a3,a5
     874:	fd442603          	lw	a2,-44(s0)
     878:	fd842583          	lw	a1,-40(s0)
     87c:	00070513          	mv	a0,a4
     880:	64c000ef          	jal	ra,ecc <altera_avalon_jtag_uart_read>
     884:	00050793          	mv	a5,a0
      fd->fd_flags);
}
     888:	00078513          	mv	a0,a5
     88c:	02c12083          	lw	ra,44(sp)
     890:	02812403          	lw	s0,40(sp)
     894:	03010113          	addi	sp,sp,48
     898:	00008067          	ret

0000089c <altera_avalon_jtag_uart_write_fd>:

int 
altera_avalon_jtag_uart_write_fd(alt_fd* fd, const char* buffer, int space)
{
     89c:	fd010113          	addi	sp,sp,-48
     8a0:	02112623          	sw	ra,44(sp)
     8a4:	02812423          	sw	s0,40(sp)
     8a8:	03010413          	addi	s0,sp,48
     8ac:	fca42e23          	sw	a0,-36(s0)
     8b0:	fcb42c23          	sw	a1,-40(s0)
     8b4:	fcc42a23          	sw	a2,-44(s0)
    altera_avalon_jtag_uart_dev* dev = (altera_avalon_jtag_uart_dev*) fd->dev; 
     8b8:	fdc42783          	lw	a5,-36(s0)
     8bc:	0007a783          	lw	a5,0(a5)
     8c0:	fef42623          	sw	a5,-20(s0)

    return altera_avalon_jtag_uart_write(&dev->state, buffer, space,
     8c4:	fec42783          	lw	a5,-20(s0)
     8c8:	02878713          	addi	a4,a5,40
     8cc:	fdc42783          	lw	a5,-36(s0)
     8d0:	0087a783          	lw	a5,8(a5)
     8d4:	00078693          	mv	a3,a5
     8d8:	fd442603          	lw	a2,-44(s0)
     8dc:	fd842583          	lw	a1,-40(s0)
     8e0:	00070513          	mv	a0,a4
     8e4:	015000ef          	jal	ra,10f8 <altera_avalon_jtag_uart_write>
     8e8:	00050793          	mv	a5,a0
      fd->fd_flags);
}
     8ec:	00078513          	mv	a0,a5
     8f0:	02c12083          	lw	ra,44(sp)
     8f4:	02812403          	lw	s0,40(sp)
     8f8:	03010113          	addi	sp,sp,48
     8fc:	00008067          	ret

00000900 <altera_avalon_jtag_uart_close_fd>:

#ifndef ALTERA_AVALON_JTAG_UART_SMALL

int 
altera_avalon_jtag_uart_close_fd(alt_fd* fd)
{
     900:	fd010113          	addi	sp,sp,-48
     904:	02112623          	sw	ra,44(sp)
     908:	02812423          	sw	s0,40(sp)
     90c:	03010413          	addi	s0,sp,48
     910:	fca42e23          	sw	a0,-36(s0)
    altera_avalon_jtag_uart_dev* dev = (altera_avalon_jtag_uart_dev*) fd->dev; 
     914:	fdc42783          	lw	a5,-36(s0)
     918:	0007a783          	lw	a5,0(a5)
     91c:	fef42623          	sw	a5,-20(s0)

    return altera_avalon_jtag_uart_close(&dev->state, fd->fd_flags);
     920:	fec42783          	lw	a5,-20(s0)
     924:	02878713          	addi	a4,a5,40
     928:	fdc42783          	lw	a5,-36(s0)
     92c:	0087a783          	lw	a5,8(a5)
     930:	00078593          	mv	a1,a5
     934:	00070513          	mv	a0,a4
     938:	428000ef          	jal	ra,d60 <altera_avalon_jtag_uart_close>
     93c:	00050793          	mv	a5,a0
}
     940:	00078513          	mv	a0,a5
     944:	02c12083          	lw	ra,44(sp)
     948:	02812403          	lw	s0,40(sp)
     94c:	03010113          	addi	sp,sp,48
     950:	00008067          	ret

00000954 <altera_avalon_jtag_uart_ioctl_fd>:

int 
altera_avalon_jtag_uart_ioctl_fd(alt_fd* fd, int req, void* arg)
{
     954:	fd010113          	addi	sp,sp,-48
     958:	02112623          	sw	ra,44(sp)
     95c:	02812423          	sw	s0,40(sp)
     960:	03010413          	addi	s0,sp,48
     964:	fca42e23          	sw	a0,-36(s0)
     968:	fcb42c23          	sw	a1,-40(s0)
     96c:	fcc42a23          	sw	a2,-44(s0)
    altera_avalon_jtag_uart_dev* dev = (altera_avalon_jtag_uart_dev*) fd->dev;
     970:	fdc42783          	lw	a5,-36(s0)
     974:	0007a783          	lw	a5,0(a5)
     978:	fef42623          	sw	a5,-20(s0)

    return altera_avalon_jtag_uart_ioctl(&dev->state, req, arg);
     97c:	fec42783          	lw	a5,-20(s0)
     980:	02878793          	addi	a5,a5,40
     984:	fd442603          	lw	a2,-44(s0)
     988:	fd842583          	lw	a1,-40(s0)
     98c:	00078513          	mv	a0,a5
     990:	43c000ef          	jal	ra,dcc <altera_avalon_jtag_uart_ioctl>
     994:	00050793          	mv	a5,a0
}
     998:	00078513          	mv	a0,a5
     99c:	02c12083          	lw	ra,44(sp)
     9a0:	02812403          	lw	s0,40(sp)
     9a4:	03010113          	addi	sp,sp,48
     9a8:	00008067          	ret

000009ac <altera_avalon_jtag_uart_init>:
 * Return 1 on sucessful IRQ register and 0 on failure.
 */

void altera_avalon_jtag_uart_init(altera_avalon_jtag_uart_state* sp, 
                                  int irq_controller_id, int irq)
{
     9ac:	fd010113          	addi	sp,sp,-48
     9b0:	02112623          	sw	ra,44(sp)
     9b4:	02812423          	sw	s0,40(sp)
     9b8:	03010413          	addi	s0,sp,48
     9bc:	fca42e23          	sw	a0,-36(s0)
     9c0:	fcb42c23          	sw	a1,-40(s0)
     9c4:	fcc42a23          	sw	a2,-44(s0)
  ALT_FLAG_CREATE(&sp->events, 0);
  ALT_SEM_CREATE(&sp->read_lock, 1);
  ALT_SEM_CREATE(&sp->write_lock, 1);

  /* enable read interrupts at the device */
  sp->irq_enable = ALTERA_AVALON_JTAG_UART_CONTROL_RE_MSK;
     9c8:	fdc42783          	lw	a5,-36(s0)
     9cc:	00100713          	li	a4,1
     9d0:	02e7a023          	sw	a4,32(a5)

  IOWR_ALTERA_AVALON_JTAG_UART_CONTROL(sp->base, sp->irq_enable); 
     9d4:	fdc42783          	lw	a5,-36(s0)
     9d8:	0207a783          	lw	a5,32(a5)
     9dc:	fef42623          	sw	a5,-20(s0)
     9e0:	fdc42783          	lw	a5,-36(s0)
     9e4:	0007a783          	lw	a5,0(a5)
     9e8:	00478793          	addi	a5,a5,4
     9ec:	00078713          	mv	a4,a5
     9f0:	fec42783          	lw	a5,-20(s0)
     9f4:	00f72023          	sw	a5,0(a4)
  
  /* register the interrupt handler */
#ifdef ALT_ENHANCED_INTERRUPT_API_PRESENT
  alt_ic_isr_register(irq_controller_id, irq, altera_avalon_jtag_uart_irq, 
     9f8:	fd842503          	lw	a0,-40(s0)
     9fc:	fd442583          	lw	a1,-44(s0)
     a00:	00000713          	li	a4,0
     a04:	fdc42683          	lw	a3,-36(s0)
     a08:	000017b7          	lui	a5,0x1
     a0c:	a6c78613          	addi	a2,a5,-1428 # a6c <altera_avalon_jtag_uart_irq>
     a10:	515000ef          	jal	ra,1724 <alt_ic_isr_register>
#else
  alt_irq_register(irq, sp, altera_avalon_jtag_uart_irq);
#endif  

  /* Register an alarm to go off every second to check for presence of host */
  sp->host_inactive = 0;
     a14:	fdc42783          	lw	a5,-36(s0)
     a18:	0207a223          	sw	zero,36(a5)

  if (alt_alarm_start(&sp->alarm, alt_ticks_per_second(), 
     a1c:	fdc42783          	lw	a5,-36(s0)
     a20:	00878713          	addi	a4,a5,8
  return _alt_tick_rate;
     a24:	0001c7b7          	lui	a5,0x1c
     a28:	5b87a583          	lw	a1,1464(a5) # 1c5b8 <_alt_tick_rate>
     a2c:	fdc42683          	lw	a3,-36(s0)
     a30:	000017b7          	lui	a5,0x1
     a34:	ca478613          	addi	a2,a5,-860 # ca4 <altera_avalon_jtag_uart_timeout>
     a38:	00070513          	mv	a0,a4
     a3c:	0f9000ef          	jal	ra,1334 <alt_alarm_start>
     a40:	00050793          	mv	a5,a0
     a44:	0007da63          	bgez	a5,a58 <altera_avalon_jtag_uart_init+0xac>
    &altera_avalon_jtag_uart_timeout, sp) < 0)
  {
    /* If we can't set the alarm then record "don't know if host present" 
     * and behave as though the host is present.
     */
    sp->timeout = INT_MAX;
     a48:	fdc42783          	lw	a5,-36(s0)
     a4c:	80000737          	lui	a4,0x80000
     a50:	fff74713          	not	a4,a4
     a54:	00e7a223          	sw	a4,4(a5)
  }

  /* ALT_LOG - see altera_hal/HAL/inc/sys/alt_log_printf.h */ 
  ALT_LOG_JTAG_UART_ALARM_REGISTER(sp, sp->base);
}
     a58:	00000013          	nop
     a5c:	02c12083          	lw	ra,44(sp)
     a60:	02812403          	lw	s0,40(sp)
     a64:	03010113          	addi	sp,sp,48
     a68:	00008067          	ret

00000a6c <altera_avalon_jtag_uart_irq>:
#ifdef ALT_ENHANCED_INTERRUPT_API_PRESENT
static void altera_avalon_jtag_uart_irq(void* context)
#else
static void altera_avalon_jtag_uart_irq(void* context, alt_u32 id)
#endif
{
     a6c:	fa010113          	addi	sp,sp,-96
     a70:	04812e23          	sw	s0,92(sp)
     a74:	06010413          	addi	s0,sp,96
     a78:	faa42623          	sw	a0,-84(s0)
  altera_avalon_jtag_uart_state* sp = (altera_avalon_jtag_uart_state*) context;
     a7c:	fac42783          	lw	a5,-84(s0)
     a80:	fcf42223          	sw	a5,-60(s0)
  unsigned int base = sp->base;
     a84:	fc442783          	lw	a5,-60(s0)
     a88:	0007a783          	lw	a5,0(a5)
     a8c:	fcf42423          	sw	a5,-56(s0)
  unsigned int postflag=0;
     a90:	fa042c23          	sw	zero,-72(s0)
  /* ALT_LOG - see altera_hal/HAL/inc/sys/alt_log_printf.h */ 
  ALT_LOG_JTAG_UART_ISR_FUNCTION(base, sp);

  for ( ; ; )
  {
    unsigned int control = IORD_ALTERA_AVALON_JTAG_UART_CONTROL(base);
     a94:	fc842783          	lw	a5,-56(s0)
     a98:	00478793          	addi	a5,a5,4
     a9c:	0007a783          	lw	a5,0(a5)
     aa0:	fcf42623          	sw	a5,-52(s0)
     aa4:	fcc42783          	lw	a5,-52(s0)
     aa8:	fcf42823          	sw	a5,-48(s0)

    /* Return once nothing more to do */
    if ((control & (ALTERA_AVALON_JTAG_UART_CONTROL_RI_MSK | ALTERA_AVALON_JTAG_UART_CONTROL_WI_MSK)) == 0)
     aac:	fd042783          	lw	a5,-48(s0)
     ab0:	3007f793          	andi	a5,a5,768
     ab4:	1c078e63          	beqz	a5,c90 <altera_avalon_jtag_uart_irq+0x224>
      break;

    if (control & ALTERA_AVALON_JTAG_UART_CONTROL_RI_MSK)
     ab8:	fd042783          	lw	a5,-48(s0)
     abc:	1007f793          	andi	a5,a5,256
     ac0:	0e078663          	beqz	a5,bac <altera_avalon_jtag_uart_irq+0x140>
    {
      /* process a read irq.  Start by assuming that there is data in the
       * receive FIFO (otherwise why would we have been interrupted?)
       */
      unsigned int data = 1 << ALTERA_AVALON_JTAG_UART_DATA_RAVAIL_OFST;
     ac4:	000107b7          	lui	a5,0x10
     ac8:	faf42e23          	sw	a5,-68(s0)
      for ( ; ; )
      {
        /* Check whether there is space in the buffer.  If not then we must not
         * read any characters from the buffer as they will be lost.
         */
        unsigned int next = (sp->rx_in + 1) % ALTERA_AVALON_JTAG_UART_BUF_LEN;
     acc:	fc442783          	lw	a5,-60(s0)
     ad0:	0287a783          	lw	a5,40(a5) # 10028 <__sbprintf+0x50>
     ad4:	00178793          	addi	a5,a5,1
     ad8:	7ff7f793          	andi	a5,a5,2047
     adc:	fcf42a23          	sw	a5,-44(s0)
        if (next == sp->rx_out)
     ae0:	fc442783          	lw	a5,-60(s0)
     ae4:	02c7a783          	lw	a5,44(a5)
     ae8:	fd442703          	lw	a4,-44(s0)
     aec:	06f70263          	beq	a4,a5,b50 <altera_avalon_jtag_uart_irq+0xe4>
          break;

        /* Try to remove a character from the FIFO and find out whether there
         * are any more characters remaining.
         */
        data = IORD_ALTERA_AVALON_JTAG_UART_DATA(base);
     af0:	fc842783          	lw	a5,-56(s0)
     af4:	0007a783          	lw	a5,0(a5)
     af8:	fcf42c23          	sw	a5,-40(s0)
     afc:	fd842783          	lw	a5,-40(s0)
     b00:	faf42e23          	sw	a5,-68(s0)
        
        if ((data & ALTERA_AVALON_JTAG_UART_DATA_RVALID_MSK) == 0)
     b04:	fbc42703          	lw	a4,-68(s0)
     b08:	000087b7          	lui	a5,0x8
     b0c:	00f777b3          	and	a5,a4,a5
     b10:	04078463          	beqz	a5,b58 <altera_avalon_jtag_uart_irq+0xec>
          break;

        sp->rx_buf[sp->rx_in] = (data & ALTERA_AVALON_JTAG_UART_DATA_DATA_MSK) >> ALTERA_AVALON_JTAG_UART_DATA_DATA_OFST;
     b14:	fc442783          	lw	a5,-60(s0)
     b18:	0287a783          	lw	a5,40(a5) # 8028 <emul+0x1d8>
     b1c:	fbc42703          	lw	a4,-68(s0)
     b20:	0ff77713          	zext.b	a4,a4
     b24:	fc442683          	lw	a3,-60(s0)
     b28:	00f687b3          	add	a5,a3,a5
     b2c:	02e78c23          	sb	a4,56(a5)
        sp->rx_in = (sp->rx_in + 1) % ALTERA_AVALON_JTAG_UART_BUF_LEN;
     b30:	fc442783          	lw	a5,-60(s0)
     b34:	0287a783          	lw	a5,40(a5)
     b38:	00178793          	addi	a5,a5,1
     b3c:	7ff7f713          	andi	a4,a5,2047
     b40:	fc442783          	lw	a5,-60(s0)
     b44:	02e7a423          	sw	a4,40(a5)
 * HAL.
 */

static ALT_INLINE int ALT_ALWAYS_INLINE alt_no_error (void)
{
  return 0;
     b48:	00000013          	nop
      {
     b4c:	f81ff06f          	j	acc <altera_avalon_jtag_uart_irq+0x60>
          break;
     b50:	00000013          	nop
     b54:	0080006f          	j	b5c <altera_avalon_jtag_uart_irq+0xf0>
          break;
     b58:	00000013          	nop

        /* Post an event to notify jtag_uart_read that a character has been read */
        ALT_FLAG_POST (sp->events, ALT_JTAG_UART_READ_RDY, ALT_FLAG_SET);
      }

      if (data & ALTERA_AVALON_JTAG_UART_DATA_RAVAIL_MSK)
     b5c:	fbc42703          	lw	a4,-68(s0)
     b60:	000107b7          	lui	a5,0x10
     b64:	04f76463          	bltu	a4,a5,bac <altera_avalon_jtag_uart_irq+0x140>
      {
        /* If there is still data available here then the buffer is full 
         * so turn off receive interrupts until some space becomes available.
         */
        sp->irq_enable &= ~ALTERA_AVALON_JTAG_UART_CONTROL_RE_MSK;
     b68:	fc442783          	lw	a5,-60(s0)
     b6c:	0207a783          	lw	a5,32(a5) # 10020 <__sbprintf+0x48>
     b70:	ffe7f713          	andi	a4,a5,-2
     b74:	fc442783          	lw	a5,-60(s0)
     b78:	02e7a023          	sw	a4,32(a5)
        IOWR_ALTERA_AVALON_JTAG_UART_CONTROL(base, sp->irq_enable);
     b7c:	fc442783          	lw	a5,-60(s0)
     b80:	0207a783          	lw	a5,32(a5)
     b84:	fcf42e23          	sw	a5,-36(s0)
     b88:	fc842783          	lw	a5,-56(s0)
     b8c:	00478793          	addi	a5,a5,4
     b90:	00078713          	mv	a4,a5
     b94:	fdc42783          	lw	a5,-36(s0)
     b98:	00f72023          	sw	a5,0(a4) # 80000000 <__alt_data_end+0x7ffe0000>
        
        /* Dummy read to ensure IRQ is cleared prior to ISR completion */
        IORD_ALTERA_AVALON_JTAG_UART_CONTROL(base);
     b9c:	fc842783          	lw	a5,-56(s0)
     ba0:	00478793          	addi	a5,a5,4
     ba4:	0007a783          	lw	a5,0(a5)
     ba8:	fef42023          	sw	a5,-32(s0)
      }
    }

    if (control & ALTERA_AVALON_JTAG_UART_CONTROL_WI_MSK)
     bac:	fd042783          	lw	a5,-48(s0)
     bb0:	2007f793          	andi	a5,a5,512
     bb4:	ee0780e3          	beqz	a5,a94 <altera_avalon_jtag_uart_irq+0x28>
    {
      /* process a write irq */
      unsigned int space = (control & ALTERA_AVALON_JTAG_UART_CONTROL_WSPACE_MSK) >> ALTERA_AVALON_JTAG_UART_CONTROL_WSPACE_OFST;
     bb8:	fd042783          	lw	a5,-48(s0)
     bbc:	0107d793          	srli	a5,a5,0x10
     bc0:	fcf42023          	sw	a5,-64(s0)

      while (space > 0 && sp->tx_out != sp->tx_in)
     bc4:	05c0006f          	j	c20 <altera_avalon_jtag_uart_irq+0x1b4>
      {
        IOWR_ALTERA_AVALON_JTAG_UART_DATA(base, sp->tx_buf[sp->tx_out]);
     bc8:	fc442783          	lw	a5,-60(s0)
     bcc:	0347a783          	lw	a5,52(a5)
     bd0:	fc442703          	lw	a4,-60(s0)
     bd4:	00f707b3          	add	a5,a4,a5
     bd8:	00001737          	lui	a4,0x1
     bdc:	00f707b3          	add	a5,a4,a5
     be0:	8387c783          	lbu	a5,-1992(a5)
     be4:	fef42223          	sw	a5,-28(s0)
     be8:	fc842783          	lw	a5,-56(s0)
     bec:	fe442703          	lw	a4,-28(s0)
     bf0:	00e7a023          	sw	a4,0(a5)

        sp->tx_out = (sp->tx_out + 1) % ALTERA_AVALON_JTAG_UART_BUF_LEN;
     bf4:	fc442783          	lw	a5,-60(s0)
     bf8:	0347a783          	lw	a5,52(a5)
     bfc:	00178793          	addi	a5,a5,1
     c00:	7ff7f713          	andi	a4,a5,2047
     c04:	fc442783          	lw	a5,-60(s0)
     c08:	02e7aa23          	sw	a4,52(a5)
        
        /* indicate that the ALT_FLAG_POST routine must be called */
        postflag=1;
     c0c:	00100793          	li	a5,1
     c10:	faf42c23          	sw	a5,-72(s0)

        space--;
     c14:	fc042783          	lw	a5,-64(s0)
     c18:	fff78793          	addi	a5,a5,-1
     c1c:	fcf42023          	sw	a5,-64(s0)
      while (space > 0 && sp->tx_out != sp->tx_in)
     c20:	fc042783          	lw	a5,-64(s0)
     c24:	00078c63          	beqz	a5,c3c <altera_avalon_jtag_uart_irq+0x1d0>
     c28:	fc442783          	lw	a5,-60(s0)
     c2c:	0347a703          	lw	a4,52(a5)
     c30:	fc442783          	lw	a5,-60(s0)
     c34:	0307a783          	lw	a5,48(a5)
     c38:	f8f718e3          	bne	a4,a5,bc8 <altera_avalon_jtag_uart_irq+0x15c>
      {
        /* Post an event to notify jtag_uart_write that a character has been written */
        ALT_FLAG_POST (sp->events, ALT_JTAG_UART_WRITE_RDY, ALT_FLAG_SET);
      }

      if (space > 0)
     c3c:	fc042783          	lw	a5,-64(s0)
     c40:	e4078ae3          	beqz	a5,a94 <altera_avalon_jtag_uart_irq+0x28>
      {
        /* If we don't have any more data available then turn off the TX interrupt */
        sp->irq_enable &= ~ALTERA_AVALON_JTAG_UART_CONTROL_WE_MSK;
     c44:	fc442783          	lw	a5,-60(s0)
     c48:	0207a783          	lw	a5,32(a5)
     c4c:	ffd7f713          	andi	a4,a5,-3
     c50:	fc442783          	lw	a5,-60(s0)
     c54:	02e7a023          	sw	a4,32(a5)
        IOWR_ALTERA_AVALON_JTAG_UART_CONTROL(sp->base, sp->irq_enable);
     c58:	fc442783          	lw	a5,-60(s0)
     c5c:	0207a783          	lw	a5,32(a5)
     c60:	fef42423          	sw	a5,-24(s0)
     c64:	fc442783          	lw	a5,-60(s0)
     c68:	0007a783          	lw	a5,0(a5)
     c6c:	00478793          	addi	a5,a5,4
     c70:	00078713          	mv	a4,a5
     c74:	fe842783          	lw	a5,-24(s0)
     c78:	00f72023          	sw	a5,0(a4) # 1000 <altera_avalon_jtag_uart_read+0x134>
        
        /* Dummy read to ensure IRQ is cleared prior to ISR completion */
        IORD_ALTERA_AVALON_JTAG_UART_CONTROL(base);
     c7c:	fc842783          	lw	a5,-56(s0)
     c80:	00478793          	addi	a5,a5,4
     c84:	0007a783          	lw	a5,0(a5)
     c88:	fef42623          	sw	a5,-20(s0)
  {
     c8c:	e09ff06f          	j	a94 <altera_avalon_jtag_uart_irq+0x28>
      break;
     c90:	00000013          	nop
      }
    }
  }
}
     c94:	00000013          	nop
     c98:	05c12403          	lw	s0,92(sp)
     c9c:	06010113          	addi	sp,sp,96
     ca0:	00008067          	ret

00000ca4 <altera_avalon_jtag_uart_timeout>:
 * Timeout routine is called every second
 */

static alt_u32 
altera_avalon_jtag_uart_timeout(void* context) 
{
     ca4:	fd010113          	addi	sp,sp,-48
     ca8:	02812623          	sw	s0,44(sp)
     cac:	03010413          	addi	s0,sp,48
     cb0:	fca42e23          	sw	a0,-36(s0)
  altera_avalon_jtag_uart_state* sp = (altera_avalon_jtag_uart_state *) context;
     cb4:	fdc42783          	lw	a5,-36(s0)
     cb8:	fef42023          	sw	a5,-32(s0)

  unsigned int control = IORD_ALTERA_AVALON_JTAG_UART_CONTROL(sp->base);
     cbc:	fe042783          	lw	a5,-32(s0)
     cc0:	0007a783          	lw	a5,0(a5)
     cc4:	00478793          	addi	a5,a5,4
     cc8:	0007a783          	lw	a5,0(a5)
     ccc:	fef42223          	sw	a5,-28(s0)
     cd0:	fe442783          	lw	a5,-28(s0)
     cd4:	fef42423          	sw	a5,-24(s0)

  if (control & ALTERA_AVALON_JTAG_UART_CONTROL_AC_MSK)
     cd8:	fe842783          	lw	a5,-24(s0)
     cdc:	4007f793          	andi	a5,a5,1024
     ce0:	02078c63          	beqz	a5,d18 <altera_avalon_jtag_uart_timeout+0x74>
  {
    IOWR_ALTERA_AVALON_JTAG_UART_CONTROL(sp->base, sp->irq_enable | ALTERA_AVALON_JTAG_UART_CONTROL_AC_MSK);
     ce4:	fe042783          	lw	a5,-32(s0)
     ce8:	0207a783          	lw	a5,32(a5)
     cec:	4007e793          	ori	a5,a5,1024
     cf0:	fef42623          	sw	a5,-20(s0)
     cf4:	fe042783          	lw	a5,-32(s0)
     cf8:	0007a783          	lw	a5,0(a5)
     cfc:	00478793          	addi	a5,a5,4
     d00:	00078713          	mv	a4,a5
     d04:	fec42783          	lw	a5,-20(s0)
     d08:	00f72023          	sw	a5,0(a4)
    sp->host_inactive = 0;
     d0c:	fe042783          	lw	a5,-32(s0)
     d10:	0207a223          	sw	zero,36(a5)
     d14:	0340006f          	j	d48 <altera_avalon_jtag_uart_timeout+0xa4>
  }
  else if (sp->host_inactive < INT_MAX - 2) {
     d18:	fe042783          	lw	a5,-32(s0)
     d1c:	0247a703          	lw	a4,36(a5)
     d20:	800007b7          	lui	a5,0x80000
     d24:	ffc7c793          	xori	a5,a5,-4
     d28:	02e7e063          	bltu	a5,a4,d48 <altera_avalon_jtag_uart_timeout+0xa4>
    sp->host_inactive++;
     d2c:	fe042783          	lw	a5,-32(s0)
     d30:	0247a783          	lw	a5,36(a5) # 80000024 <__alt_data_end+0x7ffe0024>
     d34:	00178713          	addi	a4,a5,1
     d38:	fe042783          	lw	a5,-32(s0)
     d3c:	02e7a223          	sw	a4,36(a5)
    
    if (sp->host_inactive >= sp->timeout) {
     d40:	fe042783          	lw	a5,-32(s0)
     d44:	0247a783          	lw	a5,36(a5)
     d48:	0001c7b7          	lui	a5,0x1c
     d4c:	5b87a783          	lw	a5,1464(a5) # 1c5b8 <_alt_tick_rate>
      ALT_FLAG_POST (sp->events, ALT_JTAG_UART_TIMEOUT, ALT_FLAG_SET);
    }
  }

  return alt_ticks_per_second();
}
     d50:	00078513          	mv	a0,a5
     d54:	02c12403          	lw	s0,44(sp)
     d58:	03010113          	addi	sp,sp,48
     d5c:	00008067          	ret

00000d60 <altera_avalon_jtag_uart_close>:
 * The close routine is not implemented for the small driver; instead it will
 * map to null. This is because the small driver simply waits while characters
 * are transmitted; there is no interrupt-serviced buffer to empty 
 */
int altera_avalon_jtag_uart_close(altera_avalon_jtag_uart_state* sp, int flags)
{
     d60:	fe010113          	addi	sp,sp,-32
     d64:	00812e23          	sw	s0,28(sp)
     d68:	02010413          	addi	s0,sp,32
     d6c:	fea42623          	sw	a0,-20(s0)
     d70:	feb42423          	sw	a1,-24(s0)
  /* 
   * Wait for all transmit data to be emptied by the JTAG UART ISR, or
   * for a host-inactivity timeout, in which case transmit data will be lost
   */
  while ( (sp->tx_out != sp->tx_in) && (sp->host_inactive < sp->timeout) ) {
     d74:	01c0006f          	j	d90 <altera_avalon_jtag_uart_close+0x30>
    if (flags & O_NONBLOCK) {
     d78:	fe842703          	lw	a4,-24(s0)
     d7c:	000047b7          	lui	a5,0x4
     d80:	00f777b3          	and	a5,a4,a5
     d84:	00078663          	beqz	a5,d90 <altera_avalon_jtag_uart_close+0x30>
      return -EWOULDBLOCK; 
     d88:	ff500793          	li	a5,-11
     d8c:	0300006f          	j	dbc <altera_avalon_jtag_uart_close+0x5c>
  while ( (sp->tx_out != sp->tx_in) && (sp->host_inactive < sp->timeout) ) {
     d90:	fec42783          	lw	a5,-20(s0)
     d94:	0347a703          	lw	a4,52(a5) # 4034 <_vfprintf_r+0x1a18>
     d98:	fec42783          	lw	a5,-20(s0)
     d9c:	0307a783          	lw	a5,48(a5)
     da0:	00f70c63          	beq	a4,a5,db8 <altera_avalon_jtag_uart_close+0x58>
     da4:	fec42783          	lw	a5,-20(s0)
     da8:	0247a703          	lw	a4,36(a5)
     dac:	fec42783          	lw	a5,-20(s0)
     db0:	0047a783          	lw	a5,4(a5)
     db4:	fcf762e3          	bltu	a4,a5,d78 <altera_avalon_jtag_uart_close+0x18>
    }
  }

  return 0;
     db8:	00000793          	li	a5,0
}
     dbc:	00078513          	mv	a0,a5
     dc0:	01c12403          	lw	s0,28(sp)
     dc4:	02010113          	addi	sp,sp,32
     dc8:	00008067          	ret

00000dcc <altera_avalon_jtag_uart_ioctl>:
/* ----------------------------------------------------------- */

int 
altera_avalon_jtag_uart_ioctl(altera_avalon_jtag_uart_state* sp, int req,
  void* arg)
{
     dcc:	fd010113          	addi	sp,sp,-48
     dd0:	02812623          	sw	s0,44(sp)
     dd4:	03010413          	addi	s0,sp,48
     dd8:	fca42e23          	sw	a0,-36(s0)
     ddc:	fcb42c23          	sw	a1,-40(s0)
     de0:	fcc42a23          	sw	a2,-44(s0)
  int rc = -ENOTTY;
     de4:	fe700793          	li	a5,-25
     de8:	fef42423          	sw	a5,-24(s0)

  switch (req)
     dec:	fd842703          	lw	a4,-40(s0)
     df0:	000077b7          	lui	a5,0x7
     df4:	a0178793          	addi	a5,a5,-1535 # 6a01 <_fwalk_reent+0x6d>
     df8:	00f70c63          	beq	a4,a5,e10 <altera_avalon_jtag_uart_ioctl+0x44>
     dfc:	fd842703          	lw	a4,-40(s0)
     e00:	000077b7          	lui	a5,0x7
     e04:	a0278793          	addi	a5,a5,-1534 # 6a02 <_fwalk_reent+0x6e>
     e08:	06f70263          	beq	a4,a5,e6c <altera_avalon_jtag_uart_ioctl+0xa0>
      rc = 0;
    }
    break;

  default:
    break;
     e0c:	0ac0006f          	j	eb8 <altera_avalon_jtag_uart_ioctl+0xec>
    if (sp->timeout != INT_MAX)
     e10:	fdc42783          	lw	a5,-36(s0)
     e14:	0047a703          	lw	a4,4(a5)
     e18:	800007b7          	lui	a5,0x80000
     e1c:	fff7c793          	not	a5,a5
     e20:	08f70663          	beq	a4,a5,eac <altera_avalon_jtag_uart_ioctl+0xe0>
      int timeout = *((int *)arg);
     e24:	fd442783          	lw	a5,-44(s0)
     e28:	0007a783          	lw	a5,0(a5) # 80000000 <__alt_data_end+0x7ffe0000>
     e2c:	fef42623          	sw	a5,-20(s0)
      sp->timeout = (timeout >= 2 && timeout < INT_MAX) ? timeout : INT_MAX - 1;
     e30:	fec42703          	lw	a4,-20(s0)
     e34:	00100793          	li	a5,1
     e38:	00e7de63          	bge	a5,a4,e54 <altera_avalon_jtag_uart_ioctl+0x88>
     e3c:	fec42703          	lw	a4,-20(s0)
     e40:	800007b7          	lui	a5,0x80000
     e44:	fff7c793          	not	a5,a5
     e48:	00f70663          	beq	a4,a5,e54 <altera_avalon_jtag_uart_ioctl+0x88>
     e4c:	fec42783          	lw	a5,-20(s0)
     e50:	00c0006f          	j	e5c <altera_avalon_jtag_uart_ioctl+0x90>
     e54:	800007b7          	lui	a5,0x80000
     e58:	ffe7c793          	xori	a5,a5,-2
     e5c:	fdc42703          	lw	a4,-36(s0)
     e60:	00f72223          	sw	a5,4(a4)
      rc = 0;
     e64:	fe042423          	sw	zero,-24(s0)
    break;
     e68:	0440006f          	j	eac <altera_avalon_jtag_uart_ioctl+0xe0>
    if (sp->timeout != INT_MAX)
     e6c:	fdc42783          	lw	a5,-36(s0)
     e70:	0047a703          	lw	a4,4(a5) # 80000004 <__alt_data_end+0x7ffe0004>
     e74:	800007b7          	lui	a5,0x80000
     e78:	fff7c793          	not	a5,a5
     e7c:	02f70c63          	beq	a4,a5,eb4 <altera_avalon_jtag_uart_ioctl+0xe8>
      *((int *)arg) = (sp->host_inactive < sp->timeout) ? 1 : 0;
     e80:	fdc42783          	lw	a5,-36(s0)
     e84:	0247a703          	lw	a4,36(a5) # 80000024 <__alt_data_end+0x7ffe0024>
     e88:	fdc42783          	lw	a5,-36(s0)
     e8c:	0047a783          	lw	a5,4(a5)
     e90:	00f737b3          	sltu	a5,a4,a5
     e94:	0ff7f793          	zext.b	a5,a5
     e98:	00078713          	mv	a4,a5
     e9c:	fd442783          	lw	a5,-44(s0)
     ea0:	00e7a023          	sw	a4,0(a5)
      rc = 0;
     ea4:	fe042423          	sw	zero,-24(s0)
    break;
     ea8:	00c0006f          	j	eb4 <altera_avalon_jtag_uart_ioctl+0xe8>
    break;
     eac:	00000013          	nop
     eb0:	0080006f          	j	eb8 <altera_avalon_jtag_uart_ioctl+0xec>
    break;
     eb4:	00000013          	nop
  }

  return rc;
     eb8:	fe842783          	lw	a5,-24(s0)
}
     ebc:	00078513          	mv	a0,a5
     ec0:	02c12403          	lw	s0,44(sp)
     ec4:	03010113          	addi	sp,sp,48
     ec8:	00008067          	ret

00000ecc <altera_avalon_jtag_uart_read>:
/* ----------------------------------------------------------- */

int 
altera_avalon_jtag_uart_read(altera_avalon_jtag_uart_state* sp, 
  char * buffer, int space, int flags)
{
     ecc:	fc010113          	addi	sp,sp,-64
     ed0:	02112e23          	sw	ra,60(sp)
     ed4:	02812c23          	sw	s0,56(sp)
     ed8:	04010413          	addi	s0,sp,64
     edc:	fca42623          	sw	a0,-52(s0)
     ee0:	fcb42423          	sw	a1,-56(s0)
     ee4:	fcc42223          	sw	a2,-60(s0)
     ee8:	fcd42023          	sw	a3,-64(s0)
  char * ptr = buffer;
     eec:	fc842783          	lw	a5,-56(s0)
     ef0:	fcf42823          	sw	a5,-48(s0)
   * When running in a multi threaded environment, obtain the "read_lock"
   * semaphore. This ensures that reading from the device is thread-safe.
   */
  ALT_SEM_PEND (sp->read_lock, 0);

  while (space > 0)
     ef4:	1280006f          	j	101c <altera_avalon_jtag_uart_read+0x150>
    unsigned int in, out;

    /* Read as much data as possible */
    do
    {
      in  = sp->rx_in;
     ef8:	fcc42783          	lw	a5,-52(s0)
     efc:	0287a783          	lw	a5,40(a5)
     f00:	fcf42c23          	sw	a5,-40(s0)
      out = sp->rx_out;
     f04:	fcc42783          	lw	a5,-52(s0)
     f08:	02c7a783          	lw	a5,44(a5)
     f0c:	fcf42e23          	sw	a5,-36(s0)

      if (in >= out)
     f10:	fd842703          	lw	a4,-40(s0)
     f14:	fdc42783          	lw	a5,-36(s0)
     f18:	00f76c63          	bltu	a4,a5,f30 <altera_avalon_jtag_uart_read+0x64>
        n = in - out;
     f1c:	fd842703          	lw	a4,-40(s0)
     f20:	fdc42783          	lw	a5,-36(s0)
     f24:	40f707b3          	sub	a5,a4,a5
     f28:	fcf42a23          	sw	a5,-44(s0)
     f2c:	0180006f          	j	f44 <altera_avalon_jtag_uart_read+0x78>
      else
        n = ALTERA_AVALON_JTAG_UART_BUF_LEN - out;
     f30:	000017b7          	lui	a5,0x1
     f34:	80078713          	addi	a4,a5,-2048 # 800 <alt_sys_init+0x64>
     f38:	fdc42783          	lw	a5,-36(s0)
     f3c:	40f707b3          	sub	a5,a4,a5
     f40:	fcf42a23          	sw	a5,-44(s0)

      if (n == 0)
     f44:	fd442783          	lw	a5,-44(s0)
     f48:	06078e63          	beqz	a5,fc4 <altera_avalon_jtag_uart_read+0xf8>
        break; /* No more data available */

      if (n > space)
     f4c:	fc442783          	lw	a5,-60(s0)
     f50:	fd442703          	lw	a4,-44(s0)
     f54:	00e7f663          	bgeu	a5,a4,f60 <altera_avalon_jtag_uart_read+0x94>
        n = space;
     f58:	fc442783          	lw	a5,-60(s0)
     f5c:	fcf42a23          	sw	a5,-44(s0)

      memcpy(ptr, sp->rx_buf + out, n);
     f60:	fcc42783          	lw	a5,-52(s0)
     f64:	03878713          	addi	a4,a5,56
     f68:	fdc42783          	lw	a5,-36(s0)
     f6c:	00f707b3          	add	a5,a4,a5
     f70:	fd442603          	lw	a2,-44(s0)
     f74:	00078593          	mv	a1,a5
     f78:	fd042503          	lw	a0,-48(s0)
     f7c:	094010ef          	jal	ra,2010 <memcpy>
      ptr   += n;
     f80:	fd042703          	lw	a4,-48(s0)
     f84:	fd442783          	lw	a5,-44(s0)
     f88:	00f707b3          	add	a5,a4,a5
     f8c:	fcf42823          	sw	a5,-48(s0)
      space -= n;
     f90:	fc442703          	lw	a4,-60(s0)
     f94:	fd442783          	lw	a5,-44(s0)
     f98:	40f707b3          	sub	a5,a4,a5
     f9c:	fcf42223          	sw	a5,-60(s0)

      sp->rx_out = (out + n) % ALTERA_AVALON_JTAG_UART_BUF_LEN;
     fa0:	fdc42703          	lw	a4,-36(s0)
     fa4:	fd442783          	lw	a5,-44(s0)
     fa8:	00f707b3          	add	a5,a4,a5
     fac:	7ff7f713          	andi	a4,a5,2047
     fb0:	fcc42783          	lw	a5,-52(s0)
     fb4:	02e7a623          	sw	a4,44(a5)
    }
    while (space > 0);
     fb8:	fc442783          	lw	a5,-60(s0)
     fbc:	f2f04ee3          	bgtz	a5,ef8 <altera_avalon_jtag_uart_read+0x2c>
     fc0:	0080006f          	j	fc8 <altera_avalon_jtag_uart_read+0xfc>
        break; /* No more data available */
     fc4:	00000013          	nop

    /* If we read any data then return it */
    if (ptr != buffer)
     fc8:	fd042703          	lw	a4,-48(s0)
     fcc:	fc842783          	lw	a5,-56(s0)
     fd0:	04f71c63          	bne	a4,a5,1028 <altera_avalon_jtag_uart_read+0x15c>
      break;

    /* If in non-blocking mode then return error */
    if (flags & O_NONBLOCK)
     fd4:	fc042703          	lw	a4,-64(s0)
     fd8:	000047b7          	lui	a5,0x4
     fdc:	00f777b3          	and	a5,a4,a5
     fe0:	04079863          	bnez	a5,1030 <altera_avalon_jtag_uart_read+0x164>
      while (in == sp->rx_in && sp->host_inactive < sp->timeout)
        ;
    }
#else
    /* No OS: Always spin */
    while (in == sp->rx_in && sp->host_inactive < sp->timeout)
     fe4:	00000013          	nop
     fe8:	fcc42783          	lw	a5,-52(s0)
     fec:	0287a783          	lw	a5,40(a5) # 4028 <_vfprintf_r+0x1a0c>
     ff0:	fd842703          	lw	a4,-40(s0)
     ff4:	00f71c63          	bne	a4,a5,100c <altera_avalon_jtag_uart_read+0x140>
     ff8:	fcc42783          	lw	a5,-52(s0)
     ffc:	0247a703          	lw	a4,36(a5)
    1000:	fcc42783          	lw	a5,-52(s0)
    1004:	0047a783          	lw	a5,4(a5)
    1008:	fef760e3          	bltu	a4,a5,fe8 <altera_avalon_jtag_uart_read+0x11c>
      ;
#endif /* __ucosii__ */

    if (in == sp->rx_in)
    100c:	fcc42783          	lw	a5,-52(s0)
    1010:	0287a783          	lw	a5,40(a5)
    1014:	fd842703          	lw	a4,-40(s0)
    1018:	02f70063          	beq	a4,a5,1038 <altera_avalon_jtag_uart_read+0x16c>
  while (space > 0)
    101c:	fc442783          	lw	a5,-60(s0)
    1020:	ecf04ce3          	bgtz	a5,ef8 <altera_avalon_jtag_uart_read+0x2c>
    1024:	0180006f          	j	103c <altera_avalon_jtag_uart_read+0x170>
      break;
    1028:	00000013          	nop
    102c:	0100006f          	j	103c <altera_avalon_jtag_uart_read+0x170>
      break;
    1030:	00000013          	nop
    1034:	0080006f          	j	103c <altera_avalon_jtag_uart_read+0x170>
      break;
    1038:	00000013          	nop
   * semaphore so that other threads can access the buffer.
   */

  ALT_SEM_POST (sp->read_lock);

  if (ptr != buffer)
    103c:	fd042703          	lw	a4,-48(s0)
    1040:	fc842783          	lw	a5,-56(s0)
    1044:	06f70463          	beq	a4,a5,10ac <altera_avalon_jtag_uart_read+0x1e0>
    NIOSV_READ_AND_CLR_CSR(NIOSV_MSTATUS_CSR, context, NIOSV_MSTATUS_MIE_MASK);
    1048:	00800793          	li	a5,8
    104c:	3007b7f3          	csrrc	a5,mstatus,a5
    1050:	fef42623          	sw	a5,-20(s0)
    return context;
    1054:	fec42783          	lw	a5,-20(s0)
  {
    /* If we read any data then there is space in the buffer so enable interrupts */
    context = alt_irq_disable_all();
    1058:	fef42023          	sw	a5,-32(s0)
    sp->irq_enable |= ALTERA_AVALON_JTAG_UART_CONTROL_RE_MSK;
    105c:	fcc42783          	lw	a5,-52(s0)
    1060:	0207a783          	lw	a5,32(a5)
    1064:	0017e713          	ori	a4,a5,1
    1068:	fcc42783          	lw	a5,-52(s0)
    106c:	02e7a023          	sw	a4,32(a5)
    IOWR_ALTERA_AVALON_JTAG_UART_CONTROL(sp->base, sp->irq_enable);
    1070:	fcc42783          	lw	a5,-52(s0)
    1074:	0207a783          	lw	a5,32(a5)
    1078:	fef42223          	sw	a5,-28(s0)
    107c:	fcc42783          	lw	a5,-52(s0)
    1080:	0007a783          	lw	a5,0(a5)
    1084:	00478793          	addi	a5,a5,4
    1088:	00078713          	mv	a4,a5
    108c:	fe442783          	lw	a5,-28(s0)
    1090:	00f72023          	sw	a5,0(a4)
    1094:	fe042783          	lw	a5,-32(s0)
    1098:	fef42423          	sw	a5,-24(s0)
    NIOSV_SET_CSR(NIOSV_MSTATUS_CSR, context & NIOSV_MSTATUS_MIE_MASK);
    109c:	fe842783          	lw	a5,-24(s0)
    10a0:	0087f793          	andi	a5,a5,8
    10a4:	3007a073          	csrs	mstatus,a5
}
    10a8:	00000013          	nop
    alt_irq_enable_all(context);
  }

  if (ptr != buffer)
    10ac:	fd042703          	lw	a4,-48(s0)
    10b0:	fc842783          	lw	a5,-56(s0)
    10b4:	00f70a63          	beq	a4,a5,10c8 <altera_avalon_jtag_uart_read+0x1fc>
    return ptr - buffer;
    10b8:	fd042703          	lw	a4,-48(s0)
    10bc:	fc842783          	lw	a5,-56(s0)
    10c0:	40f707b3          	sub	a5,a4,a5
    10c4:	0200006f          	j	10e4 <altera_avalon_jtag_uart_read+0x218>
  else if (flags & O_NONBLOCK)
    10c8:	fc042703          	lw	a4,-64(s0)
    10cc:	000047b7          	lui	a5,0x4
    10d0:	00f777b3          	and	a5,a4,a5
    10d4:	00078663          	beqz	a5,10e0 <altera_avalon_jtag_uart_read+0x214>
    return -EWOULDBLOCK;
    10d8:	ff500793          	li	a5,-11
    10dc:	0080006f          	j	10e4 <altera_avalon_jtag_uart_read+0x218>
  else
    return -EIO;
    10e0:	ffb00793          	li	a5,-5
}
    10e4:	00078513          	mv	a0,a5
    10e8:	03c12083          	lw	ra,60(sp)
    10ec:	03812403          	lw	s0,56(sp)
    10f0:	04010113          	addi	sp,sp,64
    10f4:	00008067          	ret

000010f8 <altera_avalon_jtag_uart_write>:
/* ----------------------------------------------------------- */

int 
altera_avalon_jtag_uart_write(altera_avalon_jtag_uart_state* sp, 
  const char * ptr, int count, int flags)
{
    10f8:	fc010113          	addi	sp,sp,-64
    10fc:	02112e23          	sw	ra,60(sp)
    1100:	02812c23          	sw	s0,56(sp)
    1104:	04010413          	addi	s0,sp,64
    1108:	fca42623          	sw	a0,-52(s0)
    110c:	fcb42423          	sw	a1,-56(s0)
    1110:	fcc42223          	sw	a2,-60(s0)
    1114:	fcd42023          	sw	a3,-64(s0)
  /* Remove warning at optimisation level 03 by seting out to 0 */
  unsigned int in, out=0;
    1118:	fc042823          	sw	zero,-48(s0)
  unsigned int n;
  alt_irq_context context;

  const char * start = ptr;
    111c:	fc842783          	lw	a5,-56(s0)
    1120:	fcf42c23          	sw	a5,-40(s0)
  ALT_SEM_PEND (sp->write_lock, 0);

  do
  {
    /* Copy as much as we can into the transmit buffer */
    while (count > 0)
    1124:	0ec0006f          	j	1210 <altera_avalon_jtag_uart_write+0x118>
    {
      /* We need a stable value of the out pointer to calculate the space available */
      in  = sp->tx_in;
    1128:	fcc42783          	lw	a5,-52(s0)
    112c:	0307a783          	lw	a5,48(a5) # 4030 <_vfprintf_r+0x1a14>
    1130:	fcf42e23          	sw	a5,-36(s0)
      out = sp->tx_out;
    1134:	fcc42783          	lw	a5,-52(s0)
    1138:	0347a783          	lw	a5,52(a5)
    113c:	fcf42823          	sw	a5,-48(s0)

      if (in < out)
    1140:	fdc42703          	lw	a4,-36(s0)
    1144:	fd042783          	lw	a5,-48(s0)
    1148:	00f77e63          	bgeu	a4,a5,1164 <altera_avalon_jtag_uart_write+0x6c>
        n = out - 1 - in;
    114c:	fd042703          	lw	a4,-48(s0)
    1150:	fdc42783          	lw	a5,-36(s0)
    1154:	40f707b3          	sub	a5,a4,a5
    1158:	fff78793          	addi	a5,a5,-1
    115c:	fcf42a23          	sw	a5,-44(s0)
    1160:	0340006f          	j	1194 <altera_avalon_jtag_uart_write+0x9c>
      else if (out > 0)
    1164:	fd042783          	lw	a5,-48(s0)
    1168:	00078e63          	beqz	a5,1184 <altera_avalon_jtag_uart_write+0x8c>
        n = ALTERA_AVALON_JTAG_UART_BUF_LEN - in;
    116c:	000017b7          	lui	a5,0x1
    1170:	80078713          	addi	a4,a5,-2048 # 800 <alt_sys_init+0x64>
    1174:	fdc42783          	lw	a5,-36(s0)
    1178:	40f707b3          	sub	a5,a4,a5
    117c:	fcf42a23          	sw	a5,-44(s0)
    1180:	0140006f          	j	1194 <altera_avalon_jtag_uart_write+0x9c>
      else
        n = ALTERA_AVALON_JTAG_UART_BUF_LEN - 1 - in;
    1184:	7ff00713          	li	a4,2047
    1188:	fdc42783          	lw	a5,-36(s0)
    118c:	40f707b3          	sub	a5,a4,a5
    1190:	fcf42a23          	sw	a5,-44(s0)

      if (n == 0)
    1194:	fd442783          	lw	a5,-44(s0)
    1198:	08078263          	beqz	a5,121c <altera_avalon_jtag_uart_write+0x124>
        break;

      if (n > count)
    119c:	fc442783          	lw	a5,-60(s0)
    11a0:	fd442703          	lw	a4,-44(s0)
    11a4:	00e7f663          	bgeu	a5,a4,11b0 <altera_avalon_jtag_uart_write+0xb8>
        n = count;
    11a8:	fc442783          	lw	a5,-60(s0)
    11ac:	fcf42a23          	sw	a5,-44(s0)

      memcpy(sp->tx_buf + in, ptr, n);
    11b0:	fcc42703          	lw	a4,-52(s0)
    11b4:	000017b7          	lui	a5,0x1
    11b8:	83878793          	addi	a5,a5,-1992 # 838 <altera_avalon_jtag_uart_read_fd>
    11bc:	00f70733          	add	a4,a4,a5
    11c0:	fdc42783          	lw	a5,-36(s0)
    11c4:	00f707b3          	add	a5,a4,a5
    11c8:	fd442603          	lw	a2,-44(s0)
    11cc:	fc842583          	lw	a1,-56(s0)
    11d0:	00078513          	mv	a0,a5
    11d4:	63d000ef          	jal	ra,2010 <memcpy>
      ptr   += n;
    11d8:	fc842703          	lw	a4,-56(s0)
    11dc:	fd442783          	lw	a5,-44(s0)
    11e0:	00f707b3          	add	a5,a4,a5
    11e4:	fcf42423          	sw	a5,-56(s0)
      count -= n;
    11e8:	fc442703          	lw	a4,-60(s0)
    11ec:	fd442783          	lw	a5,-44(s0)
    11f0:	40f707b3          	sub	a5,a4,a5
    11f4:	fcf42223          	sw	a5,-60(s0)

      sp->tx_in = (in + n) % ALTERA_AVALON_JTAG_UART_BUF_LEN;
    11f8:	fdc42703          	lw	a4,-36(s0)
    11fc:	fd442783          	lw	a5,-44(s0)
    1200:	00f707b3          	add	a5,a4,a5
    1204:	7ff7f713          	andi	a4,a5,2047
    1208:	fcc42783          	lw	a5,-52(s0)
    120c:	02e7a823          	sw	a4,48(a5)
    while (count > 0)
    1210:	fc442783          	lw	a5,-60(s0)
    1214:	f0f04ae3          	bgtz	a5,1128 <altera_avalon_jtag_uart_write+0x30>
    1218:	0080006f          	j	1220 <altera_avalon_jtag_uart_write+0x128>
        break;
    121c:	00000013          	nop
    NIOSV_READ_AND_CLR_CSR(NIOSV_MSTATUS_CSR, context, NIOSV_MSTATUS_MIE_MASK);
    1220:	00800793          	li	a5,8
    1224:	3007b7f3          	csrrc	a5,mstatus,a5
    1228:	fef42623          	sw	a5,-20(s0)
    return context;
    122c:	fec42783          	lw	a5,-20(s0)
     * to enable interrupts if there is no space left in the FIFO
     *
     * For now kick the interrupt routine every time to make it transmit 
     * the data 
     */
    context = alt_irq_disable_all();
    1230:	fef42023          	sw	a5,-32(s0)
    sp->irq_enable |= ALTERA_AVALON_JTAG_UART_CONTROL_WE_MSK;
    1234:	fcc42783          	lw	a5,-52(s0)
    1238:	0207a783          	lw	a5,32(a5)
    123c:	0027e713          	ori	a4,a5,2
    1240:	fcc42783          	lw	a5,-52(s0)
    1244:	02e7a023          	sw	a4,32(a5)
    IOWR_ALTERA_AVALON_JTAG_UART_CONTROL(sp->base, sp->irq_enable);
    1248:	fcc42783          	lw	a5,-52(s0)
    124c:	0207a783          	lw	a5,32(a5)
    1250:	fef42223          	sw	a5,-28(s0)
    1254:	fcc42783          	lw	a5,-52(s0)
    1258:	0007a783          	lw	a5,0(a5)
    125c:	00478793          	addi	a5,a5,4
    1260:	00078713          	mv	a4,a5
    1264:	fe442783          	lw	a5,-28(s0)
    1268:	00f72023          	sw	a5,0(a4)
    126c:	fe042783          	lw	a5,-32(s0)
    1270:	fef42423          	sw	a5,-24(s0)
    NIOSV_SET_CSR(NIOSV_MSTATUS_CSR, context & NIOSV_MSTATUS_MIE_MASK);
    1274:	fe842783          	lw	a5,-24(s0)
    1278:	0087f793          	andi	a5,a5,8
    127c:	3007a073          	csrs	mstatus,a5
}
    1280:	00000013          	nop
    /* 
     * If there is any data left then either return now or block until 
     * some has been sent 
     */
    /* consider: test whether there is anything there while doing this and delay for at most 2s. */
    if (count > 0)
    1284:	fc442783          	lw	a5,-60(s0)
    1288:	04f05463          	blez	a5,12d0 <altera_avalon_jtag_uart_write+0x1d8>
    {
      if (flags & O_NONBLOCK)
    128c:	fc042703          	lw	a4,-64(s0)
    1290:	000047b7          	lui	a5,0x4
    1294:	00f777b3          	and	a5,a4,a5
    1298:	04079263          	bnez	a5,12dc <altera_avalon_jtag_uart_write+0x1e4>
      /*
       * No OS present: Always wait for data to be removed from buffer.  Once
       * the interrupt routine has removed some data then we will be able to
       * insert some more.
       */
      while (out == sp->tx_out && sp->host_inactive < sp->timeout)
    129c:	00000013          	nop
    12a0:	fcc42783          	lw	a5,-52(s0)
    12a4:	0347a783          	lw	a5,52(a5) # 4034 <_vfprintf_r+0x1a18>
    12a8:	fd042703          	lw	a4,-48(s0)
    12ac:	00f71c63          	bne	a4,a5,12c4 <altera_avalon_jtag_uart_write+0x1cc>
    12b0:	fcc42783          	lw	a5,-52(s0)
    12b4:	0247a703          	lw	a4,36(a5)
    12b8:	fcc42783          	lw	a5,-52(s0)
    12bc:	0047a783          	lw	a5,4(a5)
    12c0:	fef760e3          	bltu	a4,a5,12a0 <altera_avalon_jtag_uart_write+0x1a8>
        ;
#endif /* __ucosii__ */

      if  (sp->host_inactive)
    12c4:	fcc42783          	lw	a5,-52(s0)
    12c8:	0247a783          	lw	a5,36(a5)
    12cc:	00079c63          	bnez	a5,12e4 <altera_avalon_jtag_uart_write+0x1ec>
         break;
    }
  }
  while (count > 0);
    12d0:	fc442783          	lw	a5,-60(s0)
    12d4:	f2f04ee3          	bgtz	a5,1210 <altera_avalon_jtag_uart_write+0x118>
    12d8:	0100006f          	j	12e8 <altera_avalon_jtag_uart_write+0x1f0>
        break;
    12dc:	00000013          	nop
    12e0:	0080006f          	j	12e8 <altera_avalon_jtag_uart_write+0x1f0>
         break;
    12e4:	00000013          	nop
   * Now that access to the circular buffer is complete, release the write
   * semaphore so that other threads can access the buffer.
   */
  ALT_SEM_POST (sp->write_lock);

  if (ptr != start)
    12e8:	fc842703          	lw	a4,-56(s0)
    12ec:	fd842783          	lw	a5,-40(s0)
    12f0:	00f70a63          	beq	a4,a5,1304 <altera_avalon_jtag_uart_write+0x20c>
    return ptr - start;
    12f4:	fc842703          	lw	a4,-56(s0)
    12f8:	fd842783          	lw	a5,-40(s0)
    12fc:	40f707b3          	sub	a5,a4,a5
    1300:	0200006f          	j	1320 <altera_avalon_jtag_uart_write+0x228>
  else if (flags & O_NONBLOCK)
    1304:	fc042703          	lw	a4,-64(s0)
    1308:	000047b7          	lui	a5,0x4
    130c:	00f777b3          	and	a5,a4,a5
    1310:	00078663          	beqz	a5,131c <altera_avalon_jtag_uart_write+0x224>
    return -EWOULDBLOCK;
    1314:	ff500793          	li	a5,-11
    1318:	0080006f          	j	1320 <altera_avalon_jtag_uart_write+0x228>
    sp->tx_out = sp->tx_in = 0;
    return ptr - start + count;
  }
#endif
  else
    return -EIO; /* Host not connected */
    131c:	ffb00793          	li	a5,-5
}
    1320:	00078513          	mv	a0,a5
    1324:	03c12083          	lw	ra,60(sp)
    1328:	03812403          	lw	s0,56(sp)
    132c:	04010113          	addi	sp,sp,64
    1330:	00008067          	ret

00001334 <alt_alarm_start>:
 */ 

int alt_alarm_start (alt_alarm* alarm, alt_u32 nticks,
                     alt_u32 (*callback) (void* context),
                     void* context)
{
    1334:	fc010113          	addi	sp,sp,-64
    1338:	02812e23          	sw	s0,60(sp)
    133c:	04010413          	addi	s0,sp,64
    1340:	fca42623          	sw	a0,-52(s0)
    1344:	fcb42423          	sw	a1,-56(s0)
    1348:	fcc42223          	sw	a2,-60(s0)
    134c:	fcd42023          	sw	a3,-64(s0)
  alt_irq_context irq_context;
  alt_u64 current_nticks = 0;
    1350:	00000713          	li	a4,0
    1354:	00000793          	li	a5,0
    1358:	fee42423          	sw	a4,-24(s0)
    135c:	fef42623          	sw	a5,-20(s0)
    1360:	0001c7b7          	lui	a5,0x1c
    1364:	5b87a783          	lw	a5,1464(a5) # 1c5b8 <_alt_tick_rate>
  
  if (alt_ticks_per_second ())
    1368:	12078263          	beqz	a5,148c <alt_alarm_start+0x158>
  {
    if (alarm)
    136c:	fcc42783          	lw	a5,-52(s0)
    1370:	10078a63          	beqz	a5,1484 <alt_alarm_start+0x150>
    {
      alarm->callback = callback;
    1374:	fcc42783          	lw	a5,-52(s0)
    1378:	fc442703          	lw	a4,-60(s0)
    137c:	00e7a823          	sw	a4,16(a5)
      alarm->context  = context;
    1380:	fcc42783          	lw	a5,-52(s0)
    1384:	fc042703          	lw	a4,-64(s0)
    1388:	00e7aa23          	sw	a4,20(a5)
    NIOSV_READ_AND_CLR_CSR(NIOSV_MSTATUS_CSR, context, NIOSV_MSTATUS_MIE_MASK);
    138c:	00800793          	li	a5,8
    1390:	3007b7f3          	csrrc	a5,mstatus,a5
    1394:	fef42223          	sw	a5,-28(s0)
    return context;
    1398:	fe442783          	lw	a5,-28(s0)
 
      irq_context = alt_irq_disable_all ();
    139c:	fcf42a23          	sw	a5,-44(s0)
 * alt_nticks() returns the elapsed number of system clock ticks since reset.
 */

static ALT_INLINE alt_u64 ALT_ALWAYS_INLINE alt_nticks (void)
{
  return _alt_nticks;
    13a0:	0001c7b7          	lui	a5,0x1c
    13a4:	5c07a703          	lw	a4,1472(a5) # 1c5c0 <_alt_nticks>
    13a8:	5c47a783          	lw	a5,1476(a5)
      
      current_nticks = alt_nticks();
    13ac:	fee42423          	sw	a4,-24(s0)
    13b0:	fef42623          	sw	a5,-20(s0)
      
      alarm->time = (alt_u64)nticks + current_nticks + 1; 
    13b4:	fc842783          	lw	a5,-56(s0)
    13b8:	00078813          	mv	a6,a5
    13bc:	00000893          	li	a7,0
    13c0:	fe842603          	lw	a2,-24(s0)
    13c4:	fec42683          	lw	a3,-20(s0)
    13c8:	00c80733          	add	a4,a6,a2
    13cc:	00070593          	mv	a1,a4
    13d0:	0105b5b3          	sltu	a1,a1,a6
    13d4:	00d887b3          	add	a5,a7,a3
    13d8:	00f586b3          	add	a3,a1,a5
    13dc:	00068793          	mv	a5,a3
    13e0:	00070613          	mv	a2,a4
    13e4:	00078693          	mv	a3,a5
    13e8:	00100513          	li	a0,1
    13ec:	00000593          	li	a1,0
    13f0:	00a60733          	add	a4,a2,a0
    13f4:	00070813          	mv	a6,a4
    13f8:	00c83833          	sltu	a6,a6,a2
    13fc:	00b687b3          	add	a5,a3,a1
    1400:	00f806b3          	add	a3,a6,a5
    1404:	00068793          	mv	a5,a3
    1408:	fcc42683          	lw	a3,-52(s0)
    140c:	00e6a423          	sw	a4,8(a3)
    1410:	00f6a623          	sw	a5,12(a3)
          
      alt_llist_insert (&alt_alarm_list, &alarm->llist);
    1414:	fcc42783          	lw	a5,-52(s0)
    1418:	0001b737          	lui	a4,0x1b
    141c:	9ac70713          	addi	a4,a4,-1620 # 1a9ac <alt_alarm_list>
    1420:	fce42e23          	sw	a4,-36(s0)
    1424:	fef42023          	sw	a5,-32(s0)
 */

static ALT_INLINE void ALT_ALWAYS_INLINE alt_llist_insert(alt_llist* list, 
                alt_llist* entry)
{
  entry->previous = list;
    1428:	fe042783          	lw	a5,-32(s0)
    142c:	fdc42703          	lw	a4,-36(s0)
    1430:	00e7a223          	sw	a4,4(a5)
  entry->next     = list->next;
    1434:	fdc42783          	lw	a5,-36(s0)
    1438:	0007a703          	lw	a4,0(a5)
    143c:	fe042783          	lw	a5,-32(s0)
    1440:	00e7a023          	sw	a4,0(a5)

  list->next->previous = entry;
    1444:	fdc42783          	lw	a5,-36(s0)
    1448:	0007a783          	lw	a5,0(a5)
    144c:	fe042703          	lw	a4,-32(s0)
    1450:	00e7a223          	sw	a4,4(a5)
  list->next           = entry;
    1454:	fdc42783          	lw	a5,-36(s0)
    1458:	fe042703          	lw	a4,-32(s0)
    145c:	00e7a023          	sw	a4,0(a5)
}
    1460:	00000013          	nop
    1464:	fd442783          	lw	a5,-44(s0)
    1468:	fcf42c23          	sw	a5,-40(s0)
    NIOSV_SET_CSR(NIOSV_MSTATUS_CSR, context & NIOSV_MSTATUS_MIE_MASK);
    146c:	fd842783          	lw	a5,-40(s0)
    1470:	0087f793          	andi	a5,a5,8
    1474:	3007a073          	csrs	mstatus,a5
}
    1478:	00000013          	nop
      alt_irq_enable_all (irq_context);

      return 0;
    147c:	00000793          	li	a5,0
    1480:	0100006f          	j	1490 <alt_alarm_start+0x15c>
    }
    else
    {
      return -EINVAL;
    1484:	fea00793          	li	a5,-22
    1488:	0080006f          	j	1490 <alt_alarm_start+0x15c>
    }
  }
  else
  {
    return -ENOTSUP;
    148c:	f7a00793          	li	a5,-134
  }
}
    1490:	00078513          	mv	a0,a5
    1494:	03c12403          	lw	s0,60(sp)
    1498:	04010113          	addi	sp,sp,64
    149c:	00008067          	ret

000014a0 <alt_dcache_flush_all>:

/*
 * alt_dcache_flush_all() is called to flush the entire data cache.
 */
void alt_dcache_flush_all (void)
{
    14a0:	fe010113          	addi	sp,sp,-32
    14a4:	00812e23          	sw	s0,28(sp)
    14a8:	02010413          	addi	s0,sp,32
#if ALT_CPU_DCACHE_SIZE > 0
    char* i;
    for (i = (char*)0; i < (char*) ALT_CPU_DCACHE_SIZE; i+= ALT_CPU_DCACHE_LINE_SIZE)
    14ac:	fe042623          	sw	zero,-20(s0)
    14b0:	0180006f          	j	14c8 <alt_dcache_flush_all+0x28>
    { 
      DCACHE_CLEAN_BY_INDEX_VAL(i); 
    14b4:	fec42783          	lw	a5,-20(s0)
    14b8:	0817a00f          	.4byte	0x817a00f
    for (i = (char*)0; i < (char*) ALT_CPU_DCACHE_SIZE; i+= ALT_CPU_DCACHE_LINE_SIZE)
    14bc:	fec42783          	lw	a5,-20(s0)
    14c0:	02078793          	addi	a5,a5,32
    14c4:	fef42623          	sw	a5,-20(s0)
    14c8:	fec42703          	lw	a4,-20(s0)
    14cc:	000017b7          	lui	a5,0x1
    14d0:	fef762e3          	bltu	a4,a5,14b4 <alt_dcache_flush_all+0x14>
    }
#endif
}
    14d4:	00000013          	nop
    14d8:	00000013          	nop
    14dc:	01c12403          	lw	s0,28(sp)
    14e0:	02010113          	addi	sp,sp,32
    14e4:	00008067          	ret

000014e8 <alt_dev_null_write>:
 * by the alt_dev_null device. It simple discards all data passed to it, and
 * indicates that the data has been successfully transmitted.
 */

static int alt_dev_null_write (alt_fd* fd, const char* ptr, int len)
{
    14e8:	fe010113          	addi	sp,sp,-32
    14ec:	00812e23          	sw	s0,28(sp)
    14f0:	02010413          	addi	s0,sp,32
    14f4:	fea42623          	sw	a0,-20(s0)
    14f8:	feb42423          	sw	a1,-24(s0)
    14fc:	fec42223          	sw	a2,-28(s0)
  return len;
    1500:	fe442783          	lw	a5,-28(s0)
}
    1504:	00078513          	mv	a0,a5
    1508:	01c12403          	lw	s0,28(sp)
    150c:	02010113          	addi	sp,sp,32
    1510:	00008067          	ret

00001514 <alt_dev_reg>:
    }
    /* all other elements are set to zero */
  };
  
int alt_dev_reg (alt_dev* dev)
{
    1514:	fe010113          	addi	sp,sp,-32
    1518:	00112e23          	sw	ra,28(sp)
    151c:	00812c23          	sw	s0,24(sp)
    1520:	02010413          	addi	s0,sp,32
    1524:	fea42623          	sw	a0,-20(s0)
    return alt_dev_llist_insert ((alt_dev_llist*) dev, &alt_dev_list);
    1528:	0001b7b7          	lui	a5,0x1b
    152c:	99c78593          	addi	a1,a5,-1636 # 1a99c <alt_dev_list>
    1530:	fec42503          	lw	a0,-20(s0)
    1534:	068000ef          	jal	ra,159c <alt_dev_llist_insert>
    1538:	00050793          	mv	a5,a0
}
    153c:	00078513          	mv	a0,a5
    1540:	01c12083          	lw	ra,28(sp)
    1544:	01812403          	lw	s0,24(sp)
    1548:	02010113          	addi	sp,sp,32
    154c:	00008067          	ret

00001550 <alt_get_errno>:
#undef errno

extern int errno;

static ALT_INLINE int* alt_get_errno(void)
{
    1550:	ff010113          	addi	sp,sp,-16
    1554:	00112623          	sw	ra,12(sp)
    1558:	00812423          	sw	s0,8(sp)
    155c:	01010413          	addi	s0,sp,16
  return ((alt_errno) ? alt_errno() : &errno);
    1560:	0001b7b7          	lui	a5,0x1b
    1564:	9a87a783          	lw	a5,-1624(a5) # 1a9a8 <alt_errno>
    1568:	00078c63          	beqz	a5,1580 <alt_get_errno+0x30>
    156c:	0001b7b7          	lui	a5,0x1b
    1570:	9a87a783          	lw	a5,-1624(a5) # 1a9a8 <alt_errno>
    1574:	000780e7          	jalr	a5
    1578:	00050793          	mv	a5,a0
    157c:	00c0006f          	j	1588 <alt_get_errno+0x38>
    1580:	0001c7b7          	lui	a5,0x1c
    1584:	5d078793          	addi	a5,a5,1488 # 1c5d0 <errno>
}
    1588:	00078513          	mv	a0,a5
    158c:	00c12083          	lw	ra,12(sp)
    1590:	00812403          	lw	s0,8(sp)
    1594:	01010113          	addi	sp,sp,16
    1598:	00008067          	ret

0000159c <alt_dev_llist_insert>:
/*
 *
 */

int alt_dev_llist_insert (alt_dev_llist* dev, alt_llist* list)
{
    159c:	fd010113          	addi	sp,sp,-48
    15a0:	02112623          	sw	ra,44(sp)
    15a4:	02812423          	sw	s0,40(sp)
    15a8:	03010413          	addi	s0,sp,48
    15ac:	fca42e23          	sw	a0,-36(s0)
    15b0:	fcb42c23          	sw	a1,-40(s0)
  /*
   * check that the device exists, and that it has a valid name.
   */

  if (!dev || !dev->name)
    15b4:	fdc42783          	lw	a5,-36(s0)
    15b8:	00078863          	beqz	a5,15c8 <alt_dev_llist_insert+0x2c>
    15bc:	fdc42783          	lw	a5,-36(s0)
    15c0:	0087a783          	lw	a5,8(a5)
    15c4:	00079e63          	bnez	a5,15e0 <alt_dev_llist_insert+0x44>
  {
    ALT_ERRNO = EINVAL;
    15c8:	f89ff0ef          	jal	ra,1550 <alt_get_errno>
    15cc:	00050713          	mv	a4,a0
    15d0:	01600793          	li	a5,22
    15d4:	00f72023          	sw	a5,0(a4)
    return -EINVAL;
    15d8:	fea00793          	li	a5,-22
    15dc:	0540006f          	j	1630 <alt_dev_llist_insert+0x94>
  
  /*
   * register the device.
   */
  
  alt_llist_insert(list, &dev->llist);
    15e0:	fdc42783          	lw	a5,-36(s0)
    15e4:	fd842703          	lw	a4,-40(s0)
    15e8:	fee42423          	sw	a4,-24(s0)
    15ec:	fef42623          	sw	a5,-20(s0)
  entry->previous = list;
    15f0:	fec42783          	lw	a5,-20(s0)
    15f4:	fe842703          	lw	a4,-24(s0)
    15f8:	00e7a223          	sw	a4,4(a5)
  entry->next     = list->next;
    15fc:	fe842783          	lw	a5,-24(s0)
    1600:	0007a703          	lw	a4,0(a5)
    1604:	fec42783          	lw	a5,-20(s0)
    1608:	00e7a023          	sw	a4,0(a5)
  list->next->previous = entry;
    160c:	fe842783          	lw	a5,-24(s0)
    1610:	0007a783          	lw	a5,0(a5)
    1614:	fec42703          	lw	a4,-20(s0)
    1618:	00e7a223          	sw	a4,4(a5)
  list->next           = entry;
    161c:	fe842783          	lw	a5,-24(s0)
    1620:	fec42703          	lw	a4,-20(s0)
    1624:	00e7a023          	sw	a4,0(a5)
}
    1628:	00000013          	nop

  return 0;  
    162c:	00000793          	li	a5,0
}
    1630:	00078513          	mv	a0,a5
    1634:	02c12083          	lw	ra,44(sp)
    1638:	02812403          	lw	s0,40(sp)
    163c:	03010113          	addi	sp,sp,48
    1640:	00008067          	ret

00001644 <_do_ctors>:
/*
 * Run the C++ static constructors.
 */

void _do_ctors(void)
{
    1644:	fe010113          	addi	sp,sp,-32
    1648:	00112e23          	sw	ra,28(sp)
    164c:	00812c23          	sw	s0,24(sp)
    1650:	02010413          	addi	s0,sp,32
  constructor* ctor;

  for (ctor = &__init_array_end[-1]; ctor >= __init_array_start; ctor--)
    1654:	000187b7          	lui	a5,0x18
    1658:	c8078793          	addi	a5,a5,-896 # 17c80 <__init_array_start+0x4>
    165c:	fef42623          	sw	a5,-20(s0)
    1660:	01c0006f          	j	167c <_do_ctors+0x38>
        (*ctor) (); 
    1664:	fec42783          	lw	a5,-20(s0)
    1668:	0007a783          	lw	a5,0(a5)
    166c:	000780e7          	jalr	a5
  for (ctor = &__init_array_end[-1]; ctor >= __init_array_start; ctor--)
    1670:	fec42783          	lw	a5,-20(s0)
    1674:	ffc78793          	addi	a5,a5,-4
    1678:	fef42623          	sw	a5,-20(s0)
    167c:	fec42703          	lw	a4,-20(s0)
    1680:	000187b7          	lui	a5,0x18
    1684:	c7c78793          	addi	a5,a5,-900 # 17c7c <__init_array_start>
    1688:	fcf77ee3          	bgeu	a4,a5,1664 <_do_ctors+0x20>
}
    168c:	00000013          	nop
    1690:	00000013          	nop
    1694:	01c12083          	lw	ra,28(sp)
    1698:	01812403          	lw	s0,24(sp)
    169c:	02010113          	addi	sp,sp,32
    16a0:	00008067          	ret

000016a4 <_do_dtors>:
/*
 * Run the C++ static destructors.
 */

void _do_dtors(void)
{
    16a4:	fe010113          	addi	sp,sp,-32
    16a8:	00112e23          	sw	ra,28(sp)
    16ac:	00812c23          	sw	s0,24(sp)
    16b0:	02010413          	addi	s0,sp,32
  destructor* dtor;

  for (dtor = &__fini_array_end[-1]; dtor >= __fini_array_start; dtor--)
    16b4:	000187b7          	lui	a5,0x18
    16b8:	c8078793          	addi	a5,a5,-896 # 17c80 <__init_array_start+0x4>
    16bc:	fef42623          	sw	a5,-20(s0)
    16c0:	01c0006f          	j	16dc <_do_dtors+0x38>
        (*dtor) (); 
    16c4:	fec42783          	lw	a5,-20(s0)
    16c8:	0007a783          	lw	a5,0(a5)
    16cc:	000780e7          	jalr	a5
  for (dtor = &__fini_array_end[-1]; dtor >= __fini_array_start; dtor--)
    16d0:	fec42783          	lw	a5,-20(s0)
    16d4:	ffc78793          	addi	a5,a5,-4
    16d8:	fef42623          	sw	a5,-20(s0)
    16dc:	fec42703          	lw	a4,-20(s0)
    16e0:	000187b7          	lui	a5,0x18
    16e4:	c8478793          	addi	a5,a5,-892 # 17c84 <__fini_array_end>
    16e8:	fcf77ee3          	bgeu	a4,a5,16c4 <_do_dtors+0x20>
}
    16ec:	00000013          	nop
    16f0:	00000013          	nop
    16f4:	01c12083          	lw	ra,28(sp)
    16f8:	01812403          	lw	s0,24(sp)
    16fc:	02010113          	addi	sp,sp,32
    1700:	00008067          	ret

00001704 <alt_icache_flush_all>:
/*
 * alt_icache_flush_all() is called to flush the entire instruction cache.
 */

void alt_icache_flush_all (void)
{
    1704:	ff010113          	addi	sp,sp,-16
    1708:	00812623          	sw	s0,12(sp)
    170c:	01010413          	addi	s0,sp,16
#if ALT_CPU_ICACHE_SIZE > 0
    __asm__ volatile("fence.i" ::: "memory");
    1710:	0000100f          	fence.i
#endif
}
    1714:	00000013          	nop
    1718:	00c12403          	lw	s0,12(sp)
    171c:	01010113          	addi	sp,sp,16
    1720:	00008067          	ret

00001724 <alt_ic_isr_register>:
  * @return                 0 if successful, else error (-1)
  */
int 
alt_ic_isr_register(alt_u32 ic_id, alt_u32 irq, alt_isr_func isr, 
  void *isr_context, void *flags)
{
    1724:	fd010113          	addi	sp,sp,-48
    1728:	02112623          	sw	ra,44(sp)
    172c:	02812423          	sw	s0,40(sp)
    1730:	03010413          	addi	s0,sp,48
    1734:	fea42623          	sw	a0,-20(s0)
    1738:	feb42423          	sw	a1,-24(s0)
    173c:	fec42223          	sw	a2,-28(s0)
    1740:	fed42023          	sw	a3,-32(s0)
    1744:	fce42e23          	sw	a4,-36(s0)
    return alt_iic_isr_register(ic_id, irq, isr, isr_context, flags);
    1748:	fdc42703          	lw	a4,-36(s0)
    174c:	fe042683          	lw	a3,-32(s0)
    1750:	fe442603          	lw	a2,-28(s0)
    1754:	fe842583          	lw	a1,-24(s0)
    1758:	fec42503          	lw	a0,-20(s0)
    175c:	01c000ef          	jal	ra,1778 <alt_iic_isr_register>
    1760:	00050793          	mv	a5,a0
}  
    1764:	00078513          	mv	a0,a5
    1768:	02c12083          	lw	ra,44(sp)
    176c:	02812403          	lw	s0,40(sp)
    1770:	03010113          	addi	sp,sp,48
    1774:	00008067          	ret

00001778 <alt_iic_isr_register>:
  * @param flags            
  * @return                 0 if successful, else error (-1)
  */
int alt_iic_isr_register(alt_u32 ic_id, alt_u32 irq, alt_isr_func isr, 
  void *isr_context, void *flags)
{
    1778:	fa010113          	addi	sp,sp,-96
    177c:	04812e23          	sw	s0,92(sp)
    1780:	06010413          	addi	s0,sp,96
    1784:	faa42e23          	sw	a0,-68(s0)
    1788:	fab42c23          	sw	a1,-72(s0)
    178c:	fac42a23          	sw	a2,-76(s0)
    1790:	fad42823          	sw	a3,-80(s0)
    1794:	fae42623          	sw	a4,-84(s0)
  int rc = -EINVAL;  
    1798:	fea00793          	li	a5,-22
    179c:	fcf42223          	sw	a5,-60(s0)
  int id = irq;             /* IRQ interpreted as the interrupt ID. */
    17a0:	fb842783          	lw	a5,-72(s0)
    17a4:	fcf42423          	sw	a5,-56(s0)
  alt_irq_context status;

  if (id < ALT_NIRQ)
    17a8:	fc842703          	lw	a4,-56(s0)
    17ac:	00f00793          	li	a5,15
    17b0:	12e7c863          	blt	a5,a4,18e0 <alt_iic_isr_register+0x168>
    NIOSV_READ_AND_CLR_CSR(NIOSV_MSTATUS_CSR, context, NIOSV_MSTATUS_MIE_MASK);
    17b4:	00800793          	li	a5,8
    17b8:	3007b7f3          	csrrc	a5,mstatus,a5
    17bc:	fcf42823          	sw	a5,-48(s0)
    return context;
    17c0:	fd042783          	lw	a5,-48(s0)
     * interrupts are disabled while the handler tables are updated to ensure
     * that an interrupt doesn't occur while the tables are in an inconsistant
     * state.
     */

    status = alt_irq_disable_all();
    17c4:	fcf42623          	sw	a5,-52(s0)

    alt_irq[id].handler = isr;
    17c8:	0001c7b7          	lui	a5,0x1c
    17cc:	60c78713          	addi	a4,a5,1548 # 1c60c <alt_irq>
    17d0:	fc842783          	lw	a5,-56(s0)
    17d4:	00379793          	slli	a5,a5,0x3
    17d8:	00f707b3          	add	a5,a4,a5
    17dc:	fb442703          	lw	a4,-76(s0)
    17e0:	00e7a023          	sw	a4,0(a5)
    alt_irq[id].context = isr_context;
    17e4:	0001c7b7          	lui	a5,0x1c
    17e8:	60c78713          	addi	a4,a5,1548 # 1c60c <alt_irq>
    17ec:	fc842783          	lw	a5,-56(s0)
    17f0:	00379793          	slli	a5,a5,0x3
    17f4:	00f707b3          	add	a5,a4,a5
    17f8:	fb042703          	lw	a4,-80(s0)
    17fc:	00e7a223          	sw	a4,4(a5)

    rc = (isr) ? alt_ic_irq_enable(ic_id, id) : alt_ic_irq_disable(ic_id, id);
    1800:	fb442783          	lw	a5,-76(s0)
    1804:	06078263          	beqz	a5,1868 <alt_iic_isr_register+0xf0>
    1808:	fc842783          	lw	a5,-56(s0)
    180c:	fbc42703          	lw	a4,-68(s0)
    1810:	fce42a23          	sw	a4,-44(s0)
    1814:	fcf42c23          	sw	a5,-40(s0)
    int rc = ALT_REMAP_IRQ_NUM(irq);
    1818:	fd842703          	lw	a4,-40(s0)
    181c:	00f00793          	li	a5,15
    1820:	00e7e863          	bltu	a5,a4,1830 <alt_iic_isr_register+0xb8>
    1824:	fd842783          	lw	a5,-40(s0)
    1828:	01078793          	addi	a5,a5,16
    182c:	0080006f          	j	1834 <alt_iic_isr_register+0xbc>
    1830:	fff00793          	li	a5,-1
    1834:	fcf42e23          	sw	a5,-36(s0)
    if (rc < 0)
    1838:	fdc42783          	lw	a5,-36(s0)
    183c:	0007d663          	bgez	a5,1848 <alt_iic_isr_register+0xd0>
        return rc;
    1840:	fdc42783          	lw	a5,-36(s0)
    1844:	0800006f          	j	18c4 <alt_iic_isr_register+0x14c>
        irq = (alt_u32)rc;
    1848:	fdc42783          	lw	a5,-36(s0)
    184c:	fcf42c23          	sw	a5,-40(s0)
    NIOSV_SET_CSR(NIOSV_MIE_CSR, 0x1 << irq);
    1850:	fd842783          	lw	a5,-40(s0)
    1854:	00100713          	li	a4,1
    1858:	00f717b3          	sll	a5,a4,a5
    185c:	3047a073          	csrs	mie,a5
    return 0;
    1860:	00000793          	li	a5,0
    1864:	0600006f          	j	18c4 <alt_iic_isr_register+0x14c>
    1868:	fc842783          	lw	a5,-56(s0)
    186c:	fbc42703          	lw	a4,-68(s0)
    1870:	fee42023          	sw	a4,-32(s0)
    1874:	fef42223          	sw	a5,-28(s0)
    int rc = ALT_REMAP_IRQ_NUM(irq);
    1878:	fe442703          	lw	a4,-28(s0)
    187c:	00f00793          	li	a5,15
    1880:	00e7e863          	bltu	a5,a4,1890 <alt_iic_isr_register+0x118>
    1884:	fe442783          	lw	a5,-28(s0)
    1888:	01078793          	addi	a5,a5,16
    188c:	0080006f          	j	1894 <alt_iic_isr_register+0x11c>
    1890:	fff00793          	li	a5,-1
    1894:	fef42423          	sw	a5,-24(s0)
    if (rc < 0)
    1898:	fe842783          	lw	a5,-24(s0)
    189c:	0007d663          	bgez	a5,18a8 <alt_iic_isr_register+0x130>
        return rc;
    18a0:	fe842783          	lw	a5,-24(s0)
    18a4:	0200006f          	j	18c4 <alt_iic_isr_register+0x14c>
        irq = (alt_u32)rc;
    18a8:	fe842783          	lw	a5,-24(s0)
    18ac:	fef42223          	sw	a5,-28(s0)
    NIOSV_CLR_CSR(NIOSV_MIE_CSR, 0x1 << irq);
    18b0:	fe442783          	lw	a5,-28(s0)
    18b4:	00100713          	li	a4,1
    18b8:	00f717b3          	sll	a5,a4,a5
    18bc:	3047b073          	csrc	mie,a5
    return 0;
    18c0:	00000793          	li	a5,0
    18c4:	fcf42223          	sw	a5,-60(s0)
    18c8:	fcc42783          	lw	a5,-52(s0)
    18cc:	fef42623          	sw	a5,-20(s0)
    NIOSV_SET_CSR(NIOSV_MSTATUS_CSR, context & NIOSV_MSTATUS_MIE_MASK);
    18d0:	fec42783          	lw	a5,-20(s0)
    18d4:	0087f793          	andi	a5,a5,8
    18d8:	3007a073          	csrs	mstatus,a5
}
    18dc:	00000013          	nop

    alt_irq_enable_all(status);
  }

  return rc; 
    18e0:	fc442783          	lw	a5,-60(s0)
}
    18e4:	00078513          	mv	a0,a5
    18e8:	05c12403          	lw	s0,92(sp)
    18ec:	06010113          	addi	sp,sp,96
    18f0:	00008067          	ret

000018f4 <alt_open_fd>:
 * If the device can not be succesfully opened, then the input file descriptor
 * remains unchanged.
 */

static void alt_open_fd(alt_fd* fd, const char* name, int flags, int mode)
{
    18f4:	fd010113          	addi	sp,sp,-48
    18f8:	02112623          	sw	ra,44(sp)
    18fc:	02812423          	sw	s0,40(sp)
    1900:	03010413          	addi	s0,sp,48
    1904:	fca42e23          	sw	a0,-36(s0)
    1908:	fcb42c23          	sw	a1,-40(s0)
    190c:	fcc42a23          	sw	a2,-44(s0)
    1910:	fcd42823          	sw	a3,-48(s0)
  int old;

  old = open (name, flags, mode);
    1914:	fd042603          	lw	a2,-48(s0)
    1918:	fd442583          	lw	a1,-44(s0)
    191c:	fd842503          	lw	a0,-40(s0)
    1920:	4b1000ef          	jal	ra,25d0 <open>
    1924:	fea42623          	sw	a0,-20(s0)

  if (old >= 0)
    1928:	fec42783          	lw	a5,-20(s0)
    192c:	0807c863          	bltz	a5,19bc <alt_open_fd+0xc8>
  {
    fd->dev      = alt_fd_list[old].dev;
    1930:	0001a7b7          	lui	a5,0x1a
    1934:	e7878693          	addi	a3,a5,-392 # 19e78 <alt_fd_list>
    1938:	fec42703          	lw	a4,-20(s0)
    193c:	00070793          	mv	a5,a4
    1940:	00179793          	slli	a5,a5,0x1
    1944:	00e787b3          	add	a5,a5,a4
    1948:	00279793          	slli	a5,a5,0x2
    194c:	00f687b3          	add	a5,a3,a5
    1950:	0007a703          	lw	a4,0(a5)
    1954:	fdc42783          	lw	a5,-36(s0)
    1958:	00e7a023          	sw	a4,0(a5)
    fd->priv     = alt_fd_list[old].priv;
    195c:	0001a7b7          	lui	a5,0x1a
    1960:	e7878693          	addi	a3,a5,-392 # 19e78 <alt_fd_list>
    1964:	fec42703          	lw	a4,-20(s0)
    1968:	00070793          	mv	a5,a4
    196c:	00179793          	slli	a5,a5,0x1
    1970:	00e787b3          	add	a5,a5,a4
    1974:	00279793          	slli	a5,a5,0x2
    1978:	00f687b3          	add	a5,a3,a5
    197c:	0047a703          	lw	a4,4(a5)
    1980:	fdc42783          	lw	a5,-36(s0)
    1984:	00e7a223          	sw	a4,4(a5)
    fd->fd_flags = alt_fd_list[old].fd_flags;
    1988:	0001a7b7          	lui	a5,0x1a
    198c:	e7878693          	addi	a3,a5,-392 # 19e78 <alt_fd_list>
    1990:	fec42703          	lw	a4,-20(s0)
    1994:	00070793          	mv	a5,a4
    1998:	00179793          	slli	a5,a5,0x1
    199c:	00e787b3          	add	a5,a5,a4
    19a0:	00279793          	slli	a5,a5,0x2
    19a4:	00f687b3          	add	a5,a3,a5
    19a8:	0087a703          	lw	a4,8(a5)
    19ac:	fdc42783          	lw	a5,-36(s0)
    19b0:	00e7a423          	sw	a4,8(a5)

    alt_release_fd (old);
    19b4:	fec42503          	lw	a0,-20(s0)
    19b8:	090000ef          	jal	ra,1a48 <alt_release_fd>
  }
} 
    19bc:	00000013          	nop
    19c0:	02c12083          	lw	ra,44(sp)
    19c4:	02812403          	lw	s0,40(sp)
    19c8:	03010113          	addi	sp,sp,48
    19cc:	00008067          	ret

000019d0 <alt_io_redirect>:
 */
 
void alt_io_redirect(const char* stdout_dev, 
                     const char* stdin_dev, 
                     const char* stderr_dev)
{
    19d0:	fe010113          	addi	sp,sp,-32
    19d4:	00112e23          	sw	ra,28(sp)
    19d8:	00812c23          	sw	s0,24(sp)
    19dc:	02010413          	addi	s0,sp,32
    19e0:	fea42623          	sw	a0,-20(s0)
    19e4:	feb42423          	sw	a1,-24(s0)
    19e8:	fec42223          	sw	a2,-28(s0)
  /* Redirect the channels */

  alt_open_fd (&alt_fd_list[STDOUT_FILENO], stdout_dev, O_WRONLY, 0777);
    19ec:	1ff00693          	li	a3,511
    19f0:	00100613          	li	a2,1
    19f4:	fec42583          	lw	a1,-20(s0)
    19f8:	0001a7b7          	lui	a5,0x1a
    19fc:	e8478513          	addi	a0,a5,-380 # 19e84 <alt_fd_list+0xc>
    1a00:	ef5ff0ef          	jal	ra,18f4 <alt_open_fd>
  alt_open_fd (&alt_fd_list[STDIN_FILENO], stdin_dev, O_RDONLY, 0777);
    1a04:	1ff00693          	li	a3,511
    1a08:	00000613          	li	a2,0
    1a0c:	fe842583          	lw	a1,-24(s0)
    1a10:	0001a7b7          	lui	a5,0x1a
    1a14:	e7878513          	addi	a0,a5,-392 # 19e78 <alt_fd_list>
    1a18:	eddff0ef          	jal	ra,18f4 <alt_open_fd>
  alt_open_fd (&alt_fd_list[STDERR_FILENO], stderr_dev, O_WRONLY, 0777);
    1a1c:	1ff00693          	li	a3,511
    1a20:	00100613          	li	a2,1
    1a24:	fe442583          	lw	a1,-28(s0)
    1a28:	0001a7b7          	lui	a5,0x1a
    1a2c:	e9078513          	addi	a0,a5,-368 # 19e90 <alt_fd_list+0x18>
    1a30:	ec5ff0ef          	jal	ra,18f4 <alt_open_fd>
}  
    1a34:	00000013          	nop
    1a38:	01c12083          	lw	ra,28(sp)
    1a3c:	01812403          	lw	s0,24(sp)
    1a40:	02010113          	addi	sp,sp,32
    1a44:	00008067          	ret

00001a48 <alt_release_fd>:
 * File descriptors correcponding to standard in, standard out and standard 
 * error cannont be released backed to the pool. They are always reserved.
 */

void alt_release_fd (int fd)
{
    1a48:	fe010113          	addi	sp,sp,-32
    1a4c:	00812e23          	sw	s0,28(sp)
    1a50:	02010413          	addi	s0,sp,32
    1a54:	fea42623          	sw	a0,-20(s0)
  if (fd > 2)
    1a58:	fec42703          	lw	a4,-20(s0)
    1a5c:	00200793          	li	a5,2
    1a60:	04e7d663          	bge	a5,a4,1aac <alt_release_fd+0x64>
  {
    alt_fd_list[fd].fd_flags = 0;
    1a64:	0001a7b7          	lui	a5,0x1a
    1a68:	e7878693          	addi	a3,a5,-392 # 19e78 <alt_fd_list>
    1a6c:	fec42703          	lw	a4,-20(s0)
    1a70:	00070793          	mv	a5,a4
    1a74:	00179793          	slli	a5,a5,0x1
    1a78:	00e787b3          	add	a5,a5,a4
    1a7c:	00279793          	slli	a5,a5,0x2
    1a80:	00f687b3          	add	a5,a3,a5
    1a84:	0007a423          	sw	zero,8(a5)
    alt_fd_list[fd].dev      = 0;
    1a88:	0001a7b7          	lui	a5,0x1a
    1a8c:	e7878693          	addi	a3,a5,-392 # 19e78 <alt_fd_list>
    1a90:	fec42703          	lw	a4,-20(s0)
    1a94:	00070793          	mv	a5,a4
    1a98:	00179793          	slli	a5,a5,0x1
    1a9c:	00e787b3          	add	a5,a5,a4
    1aa0:	00279793          	slli	a5,a5,0x2
    1aa4:	00f687b3          	add	a5,a3,a5
    1aa8:	0007a023          	sw	zero,0(a5)
  }
}
    1aac:	00000013          	nop
    1ab0:	01c12403          	lw	s0,28(sp)
    1ab4:	02010113          	addi	sp,sp,32
    1ab8:	00008067          	ret

00001abc <alt_alarm_stop>:
 * alarms. Alternatively an alarm can unregister itself by returning zero when 
 * the alarm executes.
 */

void alt_alarm_stop (alt_alarm* alarm)
{
    1abc:	fd010113          	addi	sp,sp,-48
    1ac0:	02812623          	sw	s0,44(sp)
    1ac4:	03010413          	addi	s0,sp,48
    1ac8:	fca42e23          	sw	a0,-36(s0)
    NIOSV_READ_AND_CLR_CSR(NIOSV_MSTATUS_CSR, context, NIOSV_MSTATUS_MIE_MASK);
    1acc:	00800793          	li	a5,8
    1ad0:	3007b7f3          	csrrc	a5,mstatus,a5
    1ad4:	fef42623          	sw	a5,-20(s0)
    return context;
    1ad8:	fec42783          	lw	a5,-20(s0)
  alt_irq_context irq_context;

  irq_context = alt_irq_disable_all();
    1adc:	fef42023          	sw	a5,-32(s0)
  alt_llist_remove (&alarm->llist);
    1ae0:	fdc42783          	lw	a5,-36(s0)
    1ae4:	fef42423          	sw	a5,-24(s0)
 * input argument is the element to remove.
 */
     
static ALT_INLINE void ALT_ALWAYS_INLINE alt_llist_remove(alt_llist* entry)
{
  entry->next->previous = entry->previous;
    1ae8:	fe842783          	lw	a5,-24(s0)
    1aec:	0007a783          	lw	a5,0(a5)
    1af0:	fe842703          	lw	a4,-24(s0)
    1af4:	00472703          	lw	a4,4(a4)
    1af8:	00e7a223          	sw	a4,4(a5)
  entry->previous->next = entry->next;
    1afc:	fe842783          	lw	a5,-24(s0)
    1b00:	0047a783          	lw	a5,4(a5)
    1b04:	fe842703          	lw	a4,-24(s0)
    1b08:	00072703          	lw	a4,0(a4)
    1b0c:	00e7a023          	sw	a4,0(a5)
  /* 
   * Set the entry to point to itself, so that any further calls to
   * alt_llist_remove() are harmless.
   */

  entry->previous = entry;
    1b10:	fe842783          	lw	a5,-24(s0)
    1b14:	fe842703          	lw	a4,-24(s0)
    1b18:	00e7a223          	sw	a4,4(a5)
  entry->next     = entry;
    1b1c:	fe842783          	lw	a5,-24(s0)
    1b20:	fe842703          	lw	a4,-24(s0)
    1b24:	00e7a023          	sw	a4,0(a5)
} 
    1b28:	00000013          	nop
    1b2c:	fe042783          	lw	a5,-32(s0)
    1b30:	fef42223          	sw	a5,-28(s0)
    NIOSV_SET_CSR(NIOSV_MSTATUS_CSR, context & NIOSV_MSTATUS_MIE_MASK);
    1b34:	fe442783          	lw	a5,-28(s0)
    1b38:	0087f793          	andi	a5,a5,8
    1b3c:	3007a073          	csrs	mstatus,a5
}
    1b40:	00000013          	nop
  alt_irq_enable_all (irq_context);
}
    1b44:	00000013          	nop
    1b48:	02c12403          	lw	s0,44(sp)
    1b4c:	03010113          	addi	sp,sp,48
    1b50:	00008067          	ret

00001b54 <alt_tick>:
 * 
 * alt_tick() is expected to run at interrupt level.
 */

void alt_tick (void)
{
    1b54:	fe010113          	addi	sp,sp,-32
    1b58:	00112e23          	sw	ra,28(sp)
    1b5c:	00812c23          	sw	s0,24(sp)
    1b60:	01212a23          	sw	s2,20(sp)
    1b64:	01312823          	sw	s3,16(sp)
    1b68:	02010413          	addi	s0,sp,32
  alt_alarm* next;
  alt_alarm* alarm = (alt_alarm*) alt_alarm_list.next;
    1b6c:	0001b7b7          	lui	a5,0x1b
    1b70:	9ac78793          	addi	a5,a5,-1620 # 1a9ac <alt_alarm_list>
    1b74:	0007a783          	lw	a5,0(a5)
    1b78:	fef42223          	sw	a5,-28(s0)

  alt_u32    next_callback;

  /* update the tick counter */

  _alt_nticks++;
    1b7c:	0001c7b7          	lui	a5,0x1c
    1b80:	5c07a703          	lw	a4,1472(a5) # 1c5c0 <_alt_nticks>
    1b84:	5c47a783          	lw	a5,1476(a5)
    1b88:	00100513          	li	a0,1
    1b8c:	00000593          	li	a1,0
    1b90:	00a70633          	add	a2,a4,a0
    1b94:	00060813          	mv	a6,a2
    1b98:	00e83833          	sltu	a6,a6,a4
    1b9c:	00b786b3          	add	a3,a5,a1
    1ba0:	00d807b3          	add	a5,a6,a3
    1ba4:	00078693          	mv	a3,a5
    1ba8:	00060713          	mv	a4,a2
    1bac:	00068793          	mv	a5,a3
    1bb0:	0001c6b7          	lui	a3,0x1c
    1bb4:	5ce6a023          	sw	a4,1472(a3) # 1c5c0 <_alt_nticks>
    1bb8:	5cf6a223          	sw	a5,1476(a3)
 
  /* process the registered callbacks */

  while (alarm != (alt_alarm*) &alt_alarm_list)
    1bbc:	0c80006f          	j	1c84 <alt_tick+0x130>
  {
    next = (alt_alarm*) alarm->llist.next;
    1bc0:	fe442783          	lw	a5,-28(s0)
    1bc4:	0007a783          	lw	a5,0(a5)
    1bc8:	fef42423          	sw	a5,-24(s0)
    
    /* if the alarm period has expired, make the callback */    
    if (alarm->time <= _alt_nticks)
    1bcc:	fe442783          	lw	a5,-28(s0)
    1bd0:	0087a603          	lw	a2,8(a5)
    1bd4:	00c7a683          	lw	a3,12(a5)
    1bd8:	0001c7b7          	lui	a5,0x1c
    1bdc:	5c07a703          	lw	a4,1472(a5) # 1c5c0 <_alt_nticks>
    1be0:	5c47a783          	lw	a5,1476(a5)
    1be4:	00068513          	mv	a0,a3
    1be8:	00078593          	mv	a1,a5
    1bec:	08a5e863          	bltu	a1,a0,1c7c <alt_tick+0x128>
    1bf0:	00068513          	mv	a0,a3
    1bf4:	00078593          	mv	a1,a5
    1bf8:	00b51863          	bne	a0,a1,1c08 <alt_tick+0xb4>
    1bfc:	00060693          	mv	a3,a2
    1c00:	00070793          	mv	a5,a4
    1c04:	06d7ec63          	bltu	a5,a3,1c7c <alt_tick+0x128>
    {
      next_callback = alarm->callback (alarm->context);
    1c08:	fe442783          	lw	a5,-28(s0)
    1c0c:	0107a783          	lw	a5,16(a5)
    1c10:	fe442703          	lw	a4,-28(s0)
    1c14:	01472703          	lw	a4,20(a4)
    1c18:	00070513          	mv	a0,a4
    1c1c:	000780e7          	jalr	a5
    1c20:	fea42623          	sw	a0,-20(s0)

      /* deactivate the alarm if the return value is zero */

      if (next_callback == 0)
    1c24:	fec42783          	lw	a5,-20(s0)
    1c28:	00079863          	bnez	a5,1c38 <alt_tick+0xe4>
      {
        alt_alarm_stop (alarm);
    1c2c:	fe442503          	lw	a0,-28(s0)
    1c30:	e8dff0ef          	jal	ra,1abc <alt_alarm_stop>
    1c34:	0480006f          	j	1c7c <alt_tick+0x128>
      }
      else
      {
        alarm->time += next_callback;
    1c38:	fe442783          	lw	a5,-28(s0)
    1c3c:	0087a703          	lw	a4,8(a5)
    1c40:	00c7a783          	lw	a5,12(a5)
    1c44:	fec42683          	lw	a3,-20(s0)
    1c48:	00068913          	mv	s2,a3
    1c4c:	00000993          	li	s3,0
    1c50:	01270633          	add	a2,a4,s2
    1c54:	00060593          	mv	a1,a2
    1c58:	00e5b5b3          	sltu	a1,a1,a4
    1c5c:	013786b3          	add	a3,a5,s3
    1c60:	00d587b3          	add	a5,a1,a3
    1c64:	00078693          	mv	a3,a5
    1c68:	00060713          	mv	a4,a2
    1c6c:	00068793          	mv	a5,a3
    1c70:	fe442683          	lw	a3,-28(s0)
    1c74:	00e6a423          	sw	a4,8(a3)
    1c78:	00f6a623          	sw	a5,12(a3)
      }
    }
    alarm = next;
    1c7c:	fe842783          	lw	a5,-24(s0)
    1c80:	fef42223          	sw	a5,-28(s0)
  while (alarm != (alt_alarm*) &alt_alarm_list)
    1c84:	fe442703          	lw	a4,-28(s0)
    1c88:	0001b7b7          	lui	a5,0x1b
    1c8c:	9ac78793          	addi	a5,a5,-1620 # 1a9ac <alt_alarm_list>
    1c90:	f2f718e3          	bne	a4,a5,1bc0 <alt_tick+0x6c>

  /* 
   * Update the operating system specific timer facilities.
   */

  ALT_OS_TIME_TICK();
    1c94:	00000013          	nop
}
    1c98:	00000013          	nop
    1c9c:	01c12083          	lw	ra,28(sp)
    1ca0:	01812403          	lw	s0,24(sp)
    1ca4:	01412903          	lw	s2,20(sp)
    1ca8:	01012983          	lw	s3,16(sp)
    1cac:	02010113          	addi	sp,sp,32
    1cb0:	00008067          	ret

00001cb4 <intel_niosv_irq_init>:
/*
 * To initialize the internal interrupt controller, just clear the mie
 * register so that all possible IRQs are disabled.
 */
void intel_niosv_irq_init(void) 
{
    1cb4:	ff010113          	addi	sp,sp,-16
    1cb8:	00812623          	sw	s0,12(sp)
    1cbc:	01010413          	addi	s0,sp,16
#if ALT_HAS_IRQ_SUPPORT
    NIOSV_CLR_CSR(NIOSV_MIE_CSR, NIOSV_MIE_MASK);
    1cc0:	fff00793          	li	a5,-1
    1cc4:	3047b073          	csrc	mie,a5
#endif
}
    1cc8:	00000013          	nop
    1ccc:	00c12403          	lw	s0,12(sp)
    1cd0:	01010113          	addi	sp,sp,16
    1cd4:	00008067          	ret

00001cd8 <alt_timestamp_start>:
#define INTEL_NIOSV_TIMER_DEVICE_TYPE 2

#if (ALT_TIMESTAMP_CLK_TIMER_DEVICE_TYPE == INTEL_NIOSV_TIMER_DEVICE_TYPE)
alt_u64 alt_niosv_timestamp_offset = 0;

int alt_timestamp_start() {
    1cd8:	ff010113          	addi	sp,sp,-16
    1cdc:	00112623          	sw	ra,12(sp)
    1ce0:	00812423          	sw	s0,8(sp)
    1ce4:	01010413          	addi	s0,sp,16
void alt_niosv_timer_sc_isr(alt_u32 cause, alt_u32 epc, alt_u32 tval);

extern alt_u64 alt_niosv_timestamp_offset;

static ALT_INLINE int ALT_ALWAYS_INLINE alt_niosv_timer_timestamp_start() {
    alt_niosv_timestamp_offset = alt_niosv_mtime_get();
    1ce8:	0ac000ef          	jal	ra,1d94 <alt_niosv_mtime_get>
    1cec:	00050713          	mv	a4,a0
    1cf0:	00058793          	mv	a5,a1
    1cf4:	0001c6b7          	lui	a3,0x1c
    1cf8:	5ce6a423          	sw	a4,1480(a3) # 1c5c8 <alt_niosv_timestamp_offset>
    1cfc:	5cf6a623          	sw	a5,1484(a3)
    return 0;
    1d00:	00000793          	li	a5,0
    return alt_niosv_timer_timestamp_start();
}
    1d04:	00078513          	mv	a0,a5
    1d08:	00c12083          	lw	ra,12(sp)
    1d0c:	00812403          	lw	s0,8(sp)
    1d10:	01010113          	addi	sp,sp,16
    1d14:	00008067          	ret

00001d18 <alt_timestamp>:

alt_timestamp_type alt_timestamp() {
    1d18:	ff010113          	addi	sp,sp,-16
    1d1c:	00112623          	sw	ra,12(sp)
    1d20:	00812423          	sw	s0,8(sp)
    1d24:	01010413          	addi	s0,sp,16
}

static ALT_INLINE alt_u64 ALT_ALWAYS_INLINE alt_niosv_timer_timestamp() {
    return alt_niosv_mtime_get() - alt_niosv_timestamp_offset;
    1d28:	06c000ef          	jal	ra,1d94 <alt_niosv_mtime_get>
    1d2c:	00050613          	mv	a2,a0
    1d30:	00058693          	mv	a3,a1
    1d34:	0001c7b7          	lui	a5,0x1c
    1d38:	5c87a503          	lw	a0,1480(a5) # 1c5c8 <alt_niosv_timestamp_offset>
    1d3c:	5cc7a583          	lw	a1,1484(a5)
    1d40:	40a60733          	sub	a4,a2,a0
    1d44:	00070813          	mv	a6,a4
    1d48:	01063833          	sltu	a6,a2,a6
    1d4c:	40b687b3          	sub	a5,a3,a1
    1d50:	410786b3          	sub	a3,a5,a6
    1d54:	00068793          	mv	a5,a3
    return alt_niosv_timer_timestamp();
}
    1d58:	00070513          	mv	a0,a4
    1d5c:	00078593          	mv	a1,a5
    1d60:	00c12083          	lw	ra,12(sp)
    1d64:	00812403          	lw	s0,8(sp)
    1d68:	01010113          	addi	sp,sp,16
    1d6c:	00008067          	ret

00001d70 <alt_timestamp_freq>:

alt_u32 alt_timestamp_freq() {
    1d70:	ff010113          	addi	sp,sp,-16
    1d74:	00812623          	sw	s0,12(sp)
    1d78:	01010413          	addi	s0,sp,16
}

static ALT_INLINE alt_u32 ALT_ALWAYS_INLINE alt_niosv_timer_timestamp_freq() {
    return ALT_CPU_CPU_FREQ;
    1d7c:	02faf7b7          	lui	a5,0x2faf
    1d80:	08078793          	addi	a5,a5,128 # 2faf080 <__alt_data_end+0x2f8f080>
    return alt_niosv_timer_timestamp_freq();
}
    1d84:	00078513          	mv	a0,a5
    1d88:	00c12403          	lw	s0,12(sp)
    1d8c:	01010113          	addi	sp,sp,16
    1d90:	00008067          	ret

00001d94 <alt_niosv_mtime_get>:
#endif

alt_u64 alt_niosv_mtime_get() {
    1d94:	fe010113          	addi	sp,sp,-32
    1d98:	00812e23          	sw	s0,28(sp)
    1d9c:	02010413          	addi	s0,sp,32
    alt_u32 lowbits;
    alt_u32 highbits;

    // Guard against rollover while acquiring each word
    do {
        highbits = ALT_VOLATILE_ACCESS((alt_u32 *)(NIOSV_MTIME_ADDR + 4));
    1da0:	00030337          	lui	t1,0x30
    1da4:	00c30313          	addi	t1,t1,12 # 3000c <__alt_data_end+0x1000c>
    1da8:	00032303          	lw	t1,0(t1)
    1dac:	fe642423          	sw	t1,-24(s0)
        lowbits = ALT_VOLATILE_ACCESS((alt_u32 *)NIOSV_MTIME_ADDR);
    1db0:	00030337          	lui	t1,0x30
    1db4:	00830313          	addi	t1,t1,8 # 30008 <__alt_data_end+0x10008>
    1db8:	00032303          	lw	t1,0(t1)
    1dbc:	fe642623          	sw	t1,-20(s0)
    } while (ALT_VOLATILE_ACCESS((alt_u32 *)(NIOSV_MTIME_ADDR + 4)) != highbits);
    1dc0:	00030337          	lui	t1,0x30
    1dc4:	00c30313          	addi	t1,t1,12 # 3000c <__alt_data_end+0x1000c>
    1dc8:	00032303          	lw	t1,0(t1)
    1dcc:	fe842e03          	lw	t3,-24(s0)
    1dd0:	fc6e18e3          	bne	t3,t1,1da0 <alt_niosv_mtime_get+0xc>

    return (((alt_u64)highbits) << 32) | lowbits;
    1dd4:	fe842303          	lw	t1,-24(s0)
    1dd8:	00030813          	mv	a6,t1
    1ddc:	00000893          	li	a7,0
    1de0:	00081793          	slli	a5,a6,0x0
    1de4:	00000713          	li	a4,0
    1de8:	fec42803          	lw	a6,-20(s0)
    1dec:	00080613          	mv	a2,a6
    1df0:	00000693          	li	a3,0
    1df4:	00c76533          	or	a0,a4,a2
    1df8:	00d7e5b3          	or	a1,a5,a3
    1dfc:	00050713          	mv	a4,a0
    1e00:	00058793          	mv	a5,a1
}
    1e04:	00070513          	mv	a0,a4
    1e08:	00078593          	mv	a1,a5
    1e0c:	01c12403          	lw	s0,28(sp)
    1e10:	02010113          	addi	sp,sp,32
    1e14:	00008067          	ret

00001e18 <alt_niosv_mtimecmp_set>:

void alt_niosv_mtimecmp_set(alt_u64 time) {
    1e18:	fe010113          	addi	sp,sp,-32
    1e1c:	00812e23          	sw	s0,28(sp)
    1e20:	02010413          	addi	s0,sp,32
    1e24:	fea42423          	sw	a0,-24(s0)
    1e28:	feb42623          	sw	a1,-20(s0)
    // Make sure to set the high word to a max value first to prevent triggering inadvertently
    ALT_VOLATILE_ACCESS((alt_u32 *)(NIOSV_MTIMECMP_ADDR + 4)) = 0xFFFFFFFF;
    1e2c:	000306b7          	lui	a3,0x30
    1e30:	00468693          	addi	a3,a3,4 # 30004 <__alt_data_end+0x10004>
    1e34:	fff00613          	li	a2,-1
    1e38:	00c6a023          	sw	a2,0(a3)
    ALT_VOLATILE_ACCESS((alt_u32 *)NIOSV_MTIMECMP_ADDR) = (alt_u32)time;
    1e3c:	000306b7          	lui	a3,0x30
    1e40:	fe842603          	lw	a2,-24(s0)
    1e44:	00c6a023          	sw	a2,0(a3) # 30000 <__alt_data_end+0x10000>
    ALT_VOLATILE_ACCESS((alt_u32 *)(NIOSV_MTIMECMP_ADDR + 4)) = (alt_u32)(time >> 32);
    1e48:	fec42683          	lw	a3,-20(s0)
    1e4c:	0006d713          	srli	a4,a3,0x0
    1e50:	00000793          	li	a5,0
    1e54:	000306b7          	lui	a3,0x30
    1e58:	00468693          	addi	a3,a3,4 # 30004 <__alt_data_end+0x10004>
    1e5c:	00070793          	mv	a5,a4
    1e60:	00f6a023          	sw	a5,0(a3)
}
    1e64:	00000013          	nop
    1e68:	01c12403          	lw	s0,28(sp)
    1e6c:	02010113          	addi	sp,sp,32
    1e70:	00008067          	ret

00001e74 <alt_niosv_mtimecmp_get>:

alt_u64 alt_niosv_mtimecmp_get() {
    1e74:	fe010113          	addi	sp,sp,-32
    1e78:	00812e23          	sw	s0,28(sp)
    1e7c:	02010413          	addi	s0,sp,32
    alt_u32 lowbits = ALT_VOLATILE_ACCESS((alt_u32 *)NIOSV_MTIMECMP_ADDR);
    1e80:	00030337          	lui	t1,0x30
    1e84:	00032303          	lw	t1,0(t1) # 30000 <__alt_data_end+0x10000>
    1e88:	fe642423          	sw	t1,-24(s0)
    alt_u32 highbits = ALT_VOLATILE_ACCESS((alt_u32 *)(NIOSV_MTIMECMP_ADDR + 4));
    1e8c:	00030337          	lui	t1,0x30
    1e90:	00430313          	addi	t1,t1,4 # 30004 <__alt_data_end+0x10004>
    1e94:	00032303          	lw	t1,0(t1)
    1e98:	fe642623          	sw	t1,-20(s0)
    return (((alt_u64)highbits) << 32) | lowbits;
    1e9c:	fec42303          	lw	t1,-20(s0)
    1ea0:	00030813          	mv	a6,t1
    1ea4:	00000893          	li	a7,0
    1ea8:	00081793          	slli	a5,a6,0x0
    1eac:	00000713          	li	a4,0
    1eb0:	fe842803          	lw	a6,-24(s0)
    1eb4:	00080613          	mv	a2,a6
    1eb8:	00000693          	li	a3,0
    1ebc:	00c76533          	or	a0,a4,a2
    1ec0:	00d7e5b3          	or	a1,a5,a3
    1ec4:	00050713          	mv	a4,a0
    1ec8:	00058793          	mv	a5,a1
}
    1ecc:	00070513          	mv	a0,a4
    1ed0:	00078593          	mv	a1,a5
    1ed4:	01c12403          	lw	s0,28(sp)
    1ed8:	02010113          	addi	sp,sp,32
    1edc:	00008067          	ret

00001ee0 <alt_niosv_timer_sc_isr>:
// Let's the OS port handles the machine timer configuration and interrupt if
// the OS port has it (ex: FreeRTOS).
void alt_niosv_timer_sc_isr(alt_u32 cause, alt_u32 epc, alt_u32 tval) {}
void alt_niosv_mtimecmp_interrupt_init() {}
#else
void alt_niosv_timer_sc_isr(alt_u32 cause, alt_u32 epc, alt_u32 tval) {
    1ee0:	fc010113          	addi	sp,sp,-64
    1ee4:	02112e23          	sw	ra,60(sp)
    1ee8:	02812c23          	sw	s0,56(sp)
    1eec:	04010413          	addi	s0,sp,64
    1ef0:	fca42623          	sw	a0,-52(s0)
    1ef4:	fcb42423          	sw	a1,-56(s0)
    1ef8:	fcc42223          	sw	a2,-60(s0)
    // Schedule the next interrupt.  This is done first since who knows how long
    // the following code takes, and the contract is ticks per second, irrespective
    // of how long a given clock tick may take.

    alt_u64 curr_time = alt_niosv_mtime_get();
    1efc:	e99ff0ef          	jal	ra,1d94 <alt_niosv_mtime_get>
    1f00:	fea42423          	sw	a0,-24(s0)
    1f04:	feb42623          	sw	a1,-20(s0)
    alt_niosv_mtimecmp_set(curr_time + MTIMECMP_DELTA_AMT);
    1f08:	fe842703          	lw	a4,-24(s0)
    1f0c:	fec42783          	lw	a5,-20(s0)
    1f10:	0000c537          	lui	a0,0xc
    1f14:	35050513          	addi	a0,a0,848 # c350 <_svfprintf_r+0x2f4>
    1f18:	00000593          	li	a1,0
    1f1c:	00a70633          	add	a2,a4,a0
    1f20:	00060813          	mv	a6,a2
    1f24:	00e83833          	sltu	a6,a6,a4
    1f28:	00b786b3          	add	a3,a5,a1
    1f2c:	00d807b3          	add	a5,a6,a3
    1f30:	00078693          	mv	a3,a5
    1f34:	00060713          	mv	a4,a2
    1f38:	00068793          	mv	a5,a3
    1f3c:	00070513          	mv	a0,a4
    1f40:	00078593          	mv	a1,a5
    1f44:	ed5ff0ef          	jal	ra,1e18 <alt_niosv_mtimecmp_set>
    NIOSV_READ_AND_CLR_CSR(NIOSV_MSTATUS_CSR, context, NIOSV_MSTATUS_MIE_MASK);
    1f48:	00800793          	li	a5,8
    1f4c:	3007b7f3          	csrrc	a5,mstatus,a5
    1f50:	fef42223          	sw	a5,-28(s0)
    return context;
    1f54:	fe442783          	lw	a5,-28(s0)

    /* 
    * Notify the system of a clock tick. disable interrupts 
    * during this time to safely support ISR preemption
    */
    alt_irq_context cpu_sr = alt_irq_disable_all();
    1f58:	fcf42e23          	sw	a5,-36(s0)
    alt_tick();
    1f5c:	bf9ff0ef          	jal	ra,1b54 <alt_tick>
    1f60:	fdc42783          	lw	a5,-36(s0)
    1f64:	fef42023          	sw	a5,-32(s0)
    NIOSV_SET_CSR(NIOSV_MSTATUS_CSR, context & NIOSV_MSTATUS_MIE_MASK);
    1f68:	fe042783          	lw	a5,-32(s0)
    1f6c:	0087f793          	andi	a5,a5,8
    1f70:	3007a073          	csrs	mstatus,a5
}
    1f74:	00000013          	nop
    alt_irq_enable_all(cpu_sr);
}
    1f78:	00000013          	nop
    1f7c:	03c12083          	lw	ra,60(sp)
    1f80:	03812403          	lw	s0,56(sp)
    1f84:	04010113          	addi	sp,sp,64
    1f88:	00008067          	ret

00001f8c <alt_niosv_mtimecmp_interrupt_init>:

void alt_niosv_mtimecmp_interrupt_init() {
    1f8c:	ff010113          	addi	sp,sp,-16
    1f90:	00112623          	sw	ra,12(sp)
    1f94:	00812423          	sw	s0,8(sp)
    1f98:	01010413          	addi	s0,sp,16
    alt_niosv_mtimecmp_set(MTIMECMP_MAX_VALUE);
    1f9c:	fff00513          	li	a0,-1
    1fa0:	fff00593          	li	a1,-1
    1fa4:	e75ff0ef          	jal	ra,1e18 <alt_niosv_mtimecmp_set>
    NIOSV_SET_CSR(NIOSV_MIE_CSR, (0x1 << NIOSV_TIMER_IRQ));
    1fa8:	08000793          	li	a5,128
    1fac:	3047a073          	csrs	mie,a5
}
    1fb0:	00000013          	nop
    alt_niosv_enable_timer_interrupt();
}
    1fb4:	00000013          	nop
    1fb8:	00c12083          	lw	ra,12(sp)
    1fbc:	00812403          	lw	s0,8(sp)
    1fc0:	01010113          	addi	sp,sp,16
    1fc4:	00008067          	ret

00001fc8 <atexit>:
    1fc8:	00050593          	mv	a1,a0
    1fcc:	00000693          	li	a3,0
    1fd0:	00000613          	li	a2,0
    1fd4:	00000513          	li	a0,0
    1fd8:	4a80306f          	j	5480 <__register_exitproc>

00001fdc <exit>:
    1fdc:	ff010113          	addi	sp,sp,-16
    1fe0:	00000593          	li	a1,0
    1fe4:	00812423          	sw	s0,8(sp)
    1fe8:	00112623          	sw	ra,12(sp)
    1fec:	00050413          	mv	s0,a0
    1ff0:	578030ef          	jal	ra,5568 <__call_exitprocs>
    1ff4:	00017517          	auipc	a0,0x17
    1ff8:	ddc52503          	lw	a0,-548(a0) # 18dd0 <_global_impure_ptr>
    1ffc:	03c52783          	lw	a5,60(a0)
    2000:	00078463          	beqz	a5,2008 <exit+0x2c>
    2004:	000780e7          	jalr	a5
    2008:	00040513          	mv	a0,s0
    200c:	549140ef          	jal	ra,16d54 <_exit>

00002010 <memcpy>:
    2010:	00b547b3          	xor	a5,a0,a1
    2014:	0037f793          	andi	a5,a5,3
    2018:	00c508b3          	add	a7,a0,a2
    201c:	06079463          	bnez	a5,2084 <memcpy+0x74>
    2020:	00300793          	li	a5,3
    2024:	06c7f063          	bgeu	a5,a2,2084 <memcpy+0x74>
    2028:	00357793          	andi	a5,a0,3
    202c:	00050713          	mv	a4,a0
    2030:	06079a63          	bnez	a5,20a4 <memcpy+0x94>
    2034:	ffc8f613          	andi	a2,a7,-4
    2038:	40e606b3          	sub	a3,a2,a4
    203c:	02000793          	li	a5,32
    2040:	08d7ce63          	blt	a5,a3,20dc <memcpy+0xcc>
    2044:	00058693          	mv	a3,a1
    2048:	00070793          	mv	a5,a4
    204c:	02c77863          	bgeu	a4,a2,207c <memcpy+0x6c>
    2050:	0006a803          	lw	a6,0(a3)
    2054:	00478793          	addi	a5,a5,4
    2058:	00468693          	addi	a3,a3,4
    205c:	ff07ae23          	sw	a6,-4(a5)
    2060:	fec7e8e3          	bltu	a5,a2,2050 <memcpy+0x40>
    2064:	fff60793          	addi	a5,a2,-1 # 1ffffff <__alt_data_end+0x1fdffff>
    2068:	40e787b3          	sub	a5,a5,a4
    206c:	ffc7f793          	andi	a5,a5,-4
    2070:	00478793          	addi	a5,a5,4
    2074:	00f70733          	add	a4,a4,a5
    2078:	00f585b3          	add	a1,a1,a5
    207c:	01176863          	bltu	a4,a7,208c <memcpy+0x7c>
    2080:	00008067          	ret
    2084:	00050713          	mv	a4,a0
    2088:	05157863          	bgeu	a0,a7,20d8 <memcpy+0xc8>
    208c:	0005c783          	lbu	a5,0(a1) # 2000000 <__alt_data_end+0x1fe0000>
    2090:	00170713          	addi	a4,a4,1
    2094:	00158593          	addi	a1,a1,1
    2098:	fef70fa3          	sb	a5,-1(a4)
    209c:	fee898e3          	bne	a7,a4,208c <memcpy+0x7c>
    20a0:	00008067          	ret
    20a4:	0005c683          	lbu	a3,0(a1)
    20a8:	00170713          	addi	a4,a4,1
    20ac:	00377793          	andi	a5,a4,3
    20b0:	fed70fa3          	sb	a3,-1(a4)
    20b4:	00158593          	addi	a1,a1,1
    20b8:	f6078ee3          	beqz	a5,2034 <memcpy+0x24>
    20bc:	0005c683          	lbu	a3,0(a1)
    20c0:	00170713          	addi	a4,a4,1
    20c4:	00377793          	andi	a5,a4,3
    20c8:	fed70fa3          	sb	a3,-1(a4)
    20cc:	00158593          	addi	a1,a1,1
    20d0:	fc079ae3          	bnez	a5,20a4 <memcpy+0x94>
    20d4:	f61ff06f          	j	2034 <memcpy+0x24>
    20d8:	00008067          	ret
    20dc:	ff010113          	addi	sp,sp,-16
    20e0:	00812623          	sw	s0,12(sp)
    20e4:	02000413          	li	s0,32
    20e8:	0005a383          	lw	t2,0(a1)
    20ec:	0045a283          	lw	t0,4(a1)
    20f0:	0085af83          	lw	t6,8(a1)
    20f4:	00c5af03          	lw	t5,12(a1)
    20f8:	0105ae83          	lw	t4,16(a1)
    20fc:	0145ae03          	lw	t3,20(a1)
    2100:	0185a303          	lw	t1,24(a1)
    2104:	01c5a803          	lw	a6,28(a1)
    2108:	0205a683          	lw	a3,32(a1)
    210c:	02470713          	addi	a4,a4,36
    2110:	40e607b3          	sub	a5,a2,a4
    2114:	fc772e23          	sw	t2,-36(a4)
    2118:	fe572023          	sw	t0,-32(a4)
    211c:	fff72223          	sw	t6,-28(a4)
    2120:	ffe72423          	sw	t5,-24(a4)
    2124:	ffd72623          	sw	t4,-20(a4)
    2128:	ffc72823          	sw	t3,-16(a4)
    212c:	fe672a23          	sw	t1,-12(a4)
    2130:	ff072c23          	sw	a6,-8(a4)
    2134:	fed72e23          	sw	a3,-4(a4)
    2138:	02458593          	addi	a1,a1,36
    213c:	faf446e3          	blt	s0,a5,20e8 <memcpy+0xd8>
    2140:	00058693          	mv	a3,a1
    2144:	00070793          	mv	a5,a4
    2148:	02c77863          	bgeu	a4,a2,2178 <memcpy+0x168>
    214c:	0006a803          	lw	a6,0(a3)
    2150:	00478793          	addi	a5,a5,4
    2154:	00468693          	addi	a3,a3,4
    2158:	ff07ae23          	sw	a6,-4(a5)
    215c:	fec7e8e3          	bltu	a5,a2,214c <memcpy+0x13c>
    2160:	fff60793          	addi	a5,a2,-1
    2164:	40e787b3          	sub	a5,a5,a4
    2168:	ffc7f793          	andi	a5,a5,-4
    216c:	00478793          	addi	a5,a5,4
    2170:	00f70733          	add	a4,a4,a5
    2174:	00f585b3          	add	a1,a1,a5
    2178:	01176863          	bltu	a4,a7,2188 <memcpy+0x178>
    217c:	00c12403          	lw	s0,12(sp)
    2180:	01010113          	addi	sp,sp,16
    2184:	00008067          	ret
    2188:	0005c783          	lbu	a5,0(a1)
    218c:	00170713          	addi	a4,a4,1
    2190:	00158593          	addi	a1,a1,1
    2194:	fef70fa3          	sb	a5,-1(a4)
    2198:	fee882e3          	beq	a7,a4,217c <memcpy+0x16c>
    219c:	0005c783          	lbu	a5,0(a1)
    21a0:	00170713          	addi	a4,a4,1
    21a4:	00158593          	addi	a1,a1,1
    21a8:	fef70fa3          	sb	a5,-1(a4)
    21ac:	fce89ee3          	bne	a7,a4,2188 <memcpy+0x178>
    21b0:	fcdff06f          	j	217c <memcpy+0x16c>

000021b4 <_printf_r>:
    21b4:	fc010113          	addi	sp,sp,-64
    21b8:	02c12423          	sw	a2,40(sp)
    21bc:	02d12623          	sw	a3,44(sp)
    21c0:	02e12823          	sw	a4,48(sp)
    21c4:	02f12a23          	sw	a5,52(sp)
    21c8:	03012c23          	sw	a6,56(sp)
    21cc:	03112e23          	sw	a7,60(sp)
    21d0:	00058613          	mv	a2,a1
    21d4:	00852583          	lw	a1,8(a0)
    21d8:	02810693          	addi	a3,sp,40
    21dc:	00112e23          	sw	ra,28(sp)
    21e0:	00d12623          	sw	a3,12(sp)
    21e4:	438000ef          	jal	ra,261c <_vfprintf_r>
    21e8:	01c12083          	lw	ra,28(sp)
    21ec:	04010113          	addi	sp,sp,64
    21f0:	00008067          	ret

000021f4 <printf>:
    21f4:	fc010113          	addi	sp,sp,-64
    21f8:	02c12423          	sw	a2,40(sp)
    21fc:	02d12623          	sw	a3,44(sp)
    2200:	00018317          	auipc	t1,0x18
    2204:	7b432303          	lw	t1,1972(t1) # 1a9b4 <_impure_ptr>
    2208:	02b12223          	sw	a1,36(sp)
    220c:	02e12823          	sw	a4,48(sp)
    2210:	02f12a23          	sw	a5,52(sp)
    2214:	03012c23          	sw	a6,56(sp)
    2218:	03112e23          	sw	a7,60(sp)
    221c:	00832583          	lw	a1,8(t1)
    2220:	02410693          	addi	a3,sp,36
    2224:	00050613          	mv	a2,a0
    2228:	00030513          	mv	a0,t1
    222c:	00112e23          	sw	ra,28(sp)
    2230:	00d12623          	sw	a3,12(sp)
    2234:	3e8000ef          	jal	ra,261c <_vfprintf_r>
    2238:	01c12083          	lw	ra,28(sp)
    223c:	04010113          	addi	sp,sp,64
    2240:	00008067          	ret

00002244 <_puts_r>:
    2244:	fd010113          	addi	sp,sp,-48
    2248:	02812423          	sw	s0,40(sp)
    224c:	00050413          	mv	s0,a0
    2250:	00058513          	mv	a0,a1
    2254:	02912223          	sw	s1,36(sp)
    2258:	02112623          	sw	ra,44(sp)
    225c:	00058493          	mv	s1,a1
    2260:	2d4000ef          	jal	ra,2534 <strlen>
    2264:	00150713          	addi	a4,a0,1
    2268:	00016697          	auipc	a3,0x16
    226c:	ca468693          	addi	a3,a3,-860 # 17f0c <__flash_rodata_start+0x27c>
    2270:	00e12623          	sw	a4,12(sp)
    2274:	03842783          	lw	a5,56(s0)
    2278:	01010713          	addi	a4,sp,16
    227c:	00d12c23          	sw	a3,24(sp)
    2280:	00e12223          	sw	a4,4(sp)
    2284:	00100693          	li	a3,1
    2288:	00200713          	li	a4,2
    228c:	00912823          	sw	s1,16(sp)
    2290:	00a12a23          	sw	a0,20(sp)
    2294:	00d12e23          	sw	a3,28(sp)
    2298:	00e12423          	sw	a4,8(sp)
    229c:	00842483          	lw	s1,8(s0)
    22a0:	08078a63          	beqz	a5,2334 <_puts_r+0xf0>
    22a4:	0644a703          	lw	a4,100(s1)
    22a8:	00c49783          	lh	a5,12(s1)
    22ac:	00177713          	andi	a4,a4,1
    22b0:	00071663          	bnez	a4,22bc <_puts_r+0x78>
    22b4:	2007f713          	andi	a4,a5,512
    22b8:	0a070463          	beqz	a4,2360 <_puts_r+0x11c>
    22bc:	01279713          	slli	a4,a5,0x12
    22c0:	02074263          	bltz	a4,22e4 <_puts_r+0xa0>
    22c4:	0644a703          	lw	a4,100(s1)
    22c8:	000026b7          	lui	a3,0x2
    22cc:	00d7e7b3          	or	a5,a5,a3
    22d0:	ffffe6b7          	lui	a3,0xffffe
    22d4:	fff68693          	addi	a3,a3,-1 # ffffdfff <__alt_data_end+0xfffddfff>
    22d8:	00d77733          	and	a4,a4,a3
    22dc:	00f49623          	sh	a5,12(s1)
    22e0:	06e4a223          	sw	a4,100(s1)
    22e4:	00040513          	mv	a0,s0
    22e8:	00410613          	addi	a2,sp,4
    22ec:	00048593          	mv	a1,s1
    22f0:	164040ef          	jal	ra,6454 <__sfvwrite_r>
    22f4:	0644a783          	lw	a5,100(s1)
    22f8:	00153413          	seqz	s0,a0
    22fc:	40800433          	neg	s0,s0
    2300:	00b47413          	andi	s0,s0,11
    2304:	0017f793          	andi	a5,a5,1
    2308:	fff40413          	addi	s0,s0,-1
    230c:	00079863          	bnez	a5,231c <_puts_r+0xd8>
    2310:	00c4d783          	lhu	a5,12(s1)
    2314:	2007f793          	andi	a5,a5,512
    2318:	02078463          	beqz	a5,2340 <_puts_r+0xfc>
    231c:	02c12083          	lw	ra,44(sp)
    2320:	00040513          	mv	a0,s0
    2324:	02812403          	lw	s0,40(sp)
    2328:	02412483          	lw	s1,36(sp)
    232c:	03010113          	addi	sp,sp,48
    2330:	00008067          	ret
    2334:	00040513          	mv	a0,s0
    2338:	0e1030ef          	jal	ra,5c18 <__sinit>
    233c:	f69ff06f          	j	22a4 <_puts_r+0x60>
    2340:	0584a503          	lw	a0,88(s1)
    2344:	3b8070ef          	jal	ra,96fc <__retarget_lock_release_recursive>
    2348:	02c12083          	lw	ra,44(sp)
    234c:	00040513          	mv	a0,s0
    2350:	02812403          	lw	s0,40(sp)
    2354:	02412483          	lw	s1,36(sp)
    2358:	03010113          	addi	sp,sp,48
    235c:	00008067          	ret
    2360:	0584a503          	lw	a0,88(s1)
    2364:	380070ef          	jal	ra,96e4 <__retarget_lock_acquire_recursive>
    2368:	00c49783          	lh	a5,12(s1)
    236c:	f51ff06f          	j	22bc <_puts_r+0x78>

00002370 <puts>:
    2370:	00050593          	mv	a1,a0
    2374:	00018517          	auipc	a0,0x18
    2378:	64052503          	lw	a0,1600(a0) # 1a9b4 <_impure_ptr>
    237c:	ec9ff06f          	j	2244 <_puts_r>

00002380 <cleanup_glue>:
    2380:	fe010113          	addi	sp,sp,-32
    2384:	01212823          	sw	s2,16(sp)
    2388:	0005a903          	lw	s2,0(a1)
    238c:	00812c23          	sw	s0,24(sp)
    2390:	00912a23          	sw	s1,20(sp)
    2394:	00112e23          	sw	ra,28(sp)
    2398:	01312623          	sw	s3,12(sp)
    239c:	01412423          	sw	s4,8(sp)
    23a0:	00058413          	mv	s0,a1
    23a4:	00050493          	mv	s1,a0
    23a8:	04090263          	beqz	s2,23ec <cleanup_glue+0x6c>
    23ac:	00092983          	lw	s3,0(s2)
    23b0:	02098863          	beqz	s3,23e0 <cleanup_glue+0x60>
    23b4:	0009aa03          	lw	s4,0(s3)
    23b8:	000a0e63          	beqz	s4,23d4 <cleanup_glue+0x54>
    23bc:	000a2583          	lw	a1,0(s4)
    23c0:	00058463          	beqz	a1,23c8 <cleanup_glue+0x48>
    23c4:	fbdff0ef          	jal	ra,2380 <cleanup_glue>
    23c8:	000a0593          	mv	a1,s4
    23cc:	00048513          	mv	a0,s1
    23d0:	57d030ef          	jal	ra,614c <_free_r>
    23d4:	00098593          	mv	a1,s3
    23d8:	00048513          	mv	a0,s1
    23dc:	571030ef          	jal	ra,614c <_free_r>
    23e0:	00090593          	mv	a1,s2
    23e4:	00048513          	mv	a0,s1
    23e8:	565030ef          	jal	ra,614c <_free_r>
    23ec:	00040593          	mv	a1,s0
    23f0:	01812403          	lw	s0,24(sp)
    23f4:	01c12083          	lw	ra,28(sp)
    23f8:	01012903          	lw	s2,16(sp)
    23fc:	00c12983          	lw	s3,12(sp)
    2400:	00812a03          	lw	s4,8(sp)
    2404:	00048513          	mv	a0,s1
    2408:	01412483          	lw	s1,20(sp)
    240c:	02010113          	addi	sp,sp,32
    2410:	53d0306f          	j	614c <_free_r>

00002414 <_reclaim_reent>:
    2414:	00018797          	auipc	a5,0x18
    2418:	5a07a783          	lw	a5,1440(a5) # 1a9b4 <_impure_ptr>
    241c:	10a78a63          	beq	a5,a0,2530 <_reclaim_reent+0x11c>
    2420:	04c52583          	lw	a1,76(a0)
    2424:	fe010113          	addi	sp,sp,-32
    2428:	00912a23          	sw	s1,20(sp)
    242c:	00112e23          	sw	ra,28(sp)
    2430:	00812c23          	sw	s0,24(sp)
    2434:	01212823          	sw	s2,16(sp)
    2438:	01312623          	sw	s3,12(sp)
    243c:	00050493          	mv	s1,a0
    2440:	04058063          	beqz	a1,2480 <_reclaim_reent+0x6c>
    2444:	00000913          	li	s2,0
    2448:	08000993          	li	s3,128
    244c:	012587b3          	add	a5,a1,s2
    2450:	0007a403          	lw	s0,0(a5)
    2454:	00040e63          	beqz	s0,2470 <_reclaim_reent+0x5c>
    2458:	00040593          	mv	a1,s0
    245c:	00042403          	lw	s0,0(s0)
    2460:	00048513          	mv	a0,s1
    2464:	4e9030ef          	jal	ra,614c <_free_r>
    2468:	fe0418e3          	bnez	s0,2458 <_reclaim_reent+0x44>
    246c:	04c4a583          	lw	a1,76(s1)
    2470:	00490913          	addi	s2,s2,4
    2474:	fd391ce3          	bne	s2,s3,244c <_reclaim_reent+0x38>
    2478:	00048513          	mv	a0,s1
    247c:	4d1030ef          	jal	ra,614c <_free_r>
    2480:	0404a583          	lw	a1,64(s1)
    2484:	00058663          	beqz	a1,2490 <_reclaim_reent+0x7c>
    2488:	00048513          	mv	a0,s1
    248c:	4c1030ef          	jal	ra,614c <_free_r>
    2490:	1484a403          	lw	s0,328(s1)
    2494:	02040063          	beqz	s0,24b4 <_reclaim_reent+0xa0>
    2498:	14c48913          	addi	s2,s1,332
    249c:	01240c63          	beq	s0,s2,24b4 <_reclaim_reent+0xa0>
    24a0:	00040593          	mv	a1,s0
    24a4:	00042403          	lw	s0,0(s0)
    24a8:	00048513          	mv	a0,s1
    24ac:	4a1030ef          	jal	ra,614c <_free_r>
    24b0:	fe8918e3          	bne	s2,s0,24a0 <_reclaim_reent+0x8c>
    24b4:	0544a583          	lw	a1,84(s1)
    24b8:	00058663          	beqz	a1,24c4 <_reclaim_reent+0xb0>
    24bc:	00048513          	mv	a0,s1
    24c0:	48d030ef          	jal	ra,614c <_free_r>
    24c4:	0384a783          	lw	a5,56(s1)
    24c8:	04078663          	beqz	a5,2514 <_reclaim_reent+0x100>
    24cc:	03c4a783          	lw	a5,60(s1)
    24d0:	00048513          	mv	a0,s1
    24d4:	000780e7          	jalr	a5
    24d8:	2e04a403          	lw	s0,736(s1)
    24dc:	02040c63          	beqz	s0,2514 <_reclaim_reent+0x100>
    24e0:	00042583          	lw	a1,0(s0)
    24e4:	00058663          	beqz	a1,24f0 <_reclaim_reent+0xdc>
    24e8:	00048513          	mv	a0,s1
    24ec:	e95ff0ef          	jal	ra,2380 <cleanup_glue>
    24f0:	00040593          	mv	a1,s0
    24f4:	01812403          	lw	s0,24(sp)
    24f8:	01c12083          	lw	ra,28(sp)
    24fc:	01012903          	lw	s2,16(sp)
    2500:	00c12983          	lw	s3,12(sp)
    2504:	00048513          	mv	a0,s1
    2508:	01412483          	lw	s1,20(sp)
    250c:	02010113          	addi	sp,sp,32
    2510:	43d0306f          	j	614c <_free_r>
    2514:	01c12083          	lw	ra,28(sp)
    2518:	01812403          	lw	s0,24(sp)
    251c:	01412483          	lw	s1,20(sp)
    2520:	01012903          	lw	s2,16(sp)
    2524:	00c12983          	lw	s3,12(sp)
    2528:	02010113          	addi	sp,sp,32
    252c:	00008067          	ret
    2530:	00008067          	ret

00002534 <strlen>:
    2534:	00357793          	andi	a5,a0,3
    2538:	00050713          	mv	a4,a0
    253c:	04079c63          	bnez	a5,2594 <strlen+0x60>
    2540:	7f7f86b7          	lui	a3,0x7f7f8
    2544:	f7f68693          	addi	a3,a3,-129 # 7f7f7f7f <__alt_data_end+0x7f7d7f7f>
    2548:	fff00593          	li	a1,-1
    254c:	00072603          	lw	a2,0(a4)
    2550:	00470713          	addi	a4,a4,4
    2554:	00d677b3          	and	a5,a2,a3
    2558:	00d787b3          	add	a5,a5,a3
    255c:	00c7e7b3          	or	a5,a5,a2
    2560:	00d7e7b3          	or	a5,a5,a3
    2564:	feb784e3          	beq	a5,a1,254c <strlen+0x18>
    2568:	ffc74683          	lbu	a3,-4(a4)
    256c:	40a707b3          	sub	a5,a4,a0
    2570:	04068463          	beqz	a3,25b8 <strlen+0x84>
    2574:	ffd74683          	lbu	a3,-3(a4)
    2578:	02068c63          	beqz	a3,25b0 <strlen+0x7c>
    257c:	ffe74503          	lbu	a0,-2(a4)
    2580:	00a03533          	snez	a0,a0
    2584:	00f50533          	add	a0,a0,a5
    2588:	ffe50513          	addi	a0,a0,-2
    258c:	00008067          	ret
    2590:	fa0688e3          	beqz	a3,2540 <strlen+0xc>
    2594:	00074783          	lbu	a5,0(a4)
    2598:	00170713          	addi	a4,a4,1
    259c:	00377693          	andi	a3,a4,3
    25a0:	fe0798e3          	bnez	a5,2590 <strlen+0x5c>
    25a4:	40a70733          	sub	a4,a4,a0
    25a8:	fff70513          	addi	a0,a4,-1
    25ac:	00008067          	ret
    25b0:	ffd78513          	addi	a0,a5,-3
    25b4:	00008067          	ret
    25b8:	ffc78513          	addi	a0,a5,-4
    25bc:	00008067          	ret

000025c0 <close>:
    25c0:	00050593          	mv	a1,a0
    25c4:	00018517          	auipc	a0,0x18
    25c8:	3f052503          	lw	a0,1008(a0) # 1a9b4 <_impure_ptr>
    25cc:	0f00306f          	j	56bc <_close_r>

000025d0 <open>:
    25d0:	fc010113          	addi	sp,sp,-64
    25d4:	02c12423          	sw	a2,40(sp)
    25d8:	02d12623          	sw	a3,44(sp)
    25dc:	02f12a23          	sw	a5,52(sp)
    25e0:	00060693          	mv	a3,a2
    25e4:	02810793          	addi	a5,sp,40
    25e8:	00058613          	mv	a2,a1
    25ec:	00050593          	mv	a1,a0
    25f0:	00018517          	auipc	a0,0x18
    25f4:	3c452503          	lw	a0,964(a0) # 1a9b4 <_impure_ptr>
    25f8:	00112e23          	sw	ra,28(sp)
    25fc:	02e12823          	sw	a4,48(sp)
    2600:	03012c23          	sw	a6,56(sp)
    2604:	03112e23          	sw	a7,60(sp)
    2608:	00f12623          	sw	a5,12(sp)
    260c:	7dd080ef          	jal	ra,b5e8 <_open_r>
    2610:	01c12083          	lw	ra,28(sp)
    2614:	04010113          	addi	sp,sp,64
    2618:	00008067          	ret

0000261c <_vfprintf_r>:
    261c:	e1010113          	addi	sp,sp,-496
    2620:	1e112623          	sw	ra,492(sp)
    2624:	1e812423          	sw	s0,488(sp)
    2628:	1d312e23          	sw	s3,476(sp)
    262c:	1bb12e23          	sw	s11,444(sp)
    2630:	00060993          	mv	s3,a2
    2634:	00058d93          	mv	s11,a1
    2638:	00d12823          	sw	a3,16(sp)
    263c:	1e912223          	sw	s1,484(sp)
    2640:	1f212023          	sw	s2,480(sp)
    2644:	1d412c23          	sw	s4,472(sp)
    2648:	1d512a23          	sw	s5,468(sp)
    264c:	1d612823          	sw	s6,464(sp)
    2650:	1d712623          	sw	s7,460(sp)
    2654:	1d812423          	sw	s8,456(sp)
    2658:	1d912223          	sw	s9,452(sp)
    265c:	1da12023          	sw	s10,448(sp)
    2660:	00050413          	mv	s0,a0
    2664:	00a12223          	sw	a0,4(sp)
    2668:	050070ef          	jal	ra,96b8 <_localeconv_r>
    266c:	00052703          	lw	a4,0(a0)
    2670:	00070513          	mv	a0,a4
    2674:	02e12423          	sw	a4,40(sp)
    2678:	ebdff0ef          	jal	ra,2534 <strlen>
    267c:	02a12223          	sw	a0,36(sp)
    2680:	0e012823          	sw	zero,240(sp)
    2684:	0e012a23          	sw	zero,244(sp)
    2688:	0e012c23          	sw	zero,248(sp)
    268c:	0e012e23          	sw	zero,252(sp)
    2690:	00040663          	beqz	s0,269c <_vfprintf_r+0x80>
    2694:	03842783          	lw	a5,56(s0)
    2698:	76078263          	beqz	a5,2dfc <_vfprintf_r+0x7e0>
    269c:	064da703          	lw	a4,100(s11)
    26a0:	00cd9783          	lh	a5,12(s11)
    26a4:	00177713          	andi	a4,a4,1
    26a8:	00071863          	bnez	a4,26b8 <_vfprintf_r+0x9c>
    26ac:	2007f713          	andi	a4,a5,512
    26b0:	00071463          	bnez	a4,26b8 <_vfprintf_r+0x9c>
    26b4:	3740106f          	j	3a28 <_vfprintf_r+0x140c>
    26b8:	01279713          	slli	a4,a5,0x12
    26bc:	02074663          	bltz	a4,26e8 <_vfprintf_r+0xcc>
    26c0:	064da703          	lw	a4,100(s11)
    26c4:	000026b7          	lui	a3,0x2
    26c8:	00d7e7b3          	or	a5,a5,a3
    26cc:	ffffe6b7          	lui	a3,0xffffe
    26d0:	01079793          	slli	a5,a5,0x10
    26d4:	fff68693          	addi	a3,a3,-1 # ffffdfff <__alt_data_end+0xfffddfff>
    26d8:	4107d793          	srai	a5,a5,0x10
    26dc:	00d77733          	and	a4,a4,a3
    26e0:	00fd9623          	sh	a5,12(s11)
    26e4:	06eda223          	sw	a4,100(s11)
    26e8:	0087f713          	andi	a4,a5,8
    26ec:	2e070a63          	beqz	a4,29e0 <_vfprintf_r+0x3c4>
    26f0:	010da703          	lw	a4,16(s11)
    26f4:	2e070663          	beqz	a4,29e0 <_vfprintf_r+0x3c4>
    26f8:	01a7f713          	andi	a4,a5,26
    26fc:	00a00693          	li	a3,10
    2700:	30d70263          	beq	a4,a3,2a04 <_vfprintf_r+0x3e8>
    2704:	00098b93          	mv	s7,s3
    2708:	000bc703          	lbu	a4,0(s7)
    270c:	10c10793          	addi	a5,sp,268
    2710:	0ef12223          	sw	a5,228(sp)
    2714:	0e012623          	sw	zero,236(sp)
    2718:	0e012423          	sw	zero,232(sp)
    271c:	00012c23          	sw	zero,24(sp)
    2720:	02012623          	sw	zero,44(sp)
    2724:	02012823          	sw	zero,48(sp)
    2728:	02012a23          	sw	zero,52(sp)
    272c:	04012023          	sw	zero,64(sp)
    2730:	02012c23          	sw	zero,56(sp)
    2734:	00012423          	sw	zero,8(sp)
    2738:	01000c93          	li	s9,16
    273c:	00078413          	mv	s0,a5
    2740:	22070a63          	beqz	a4,2974 <_vfprintf_r+0x358>
    2744:	000b8493          	mv	s1,s7
    2748:	02500693          	li	a3,37
    274c:	32d70e63          	beq	a4,a3,2a88 <_vfprintf_r+0x46c>
    2750:	0014c703          	lbu	a4,1(s1)
    2754:	00148493          	addi	s1,s1,1
    2758:	fe071ae3          	bnez	a4,274c <_vfprintf_r+0x130>
    275c:	41748933          	sub	s2,s1,s7
    2760:	21748a63          	beq	s1,s7,2974 <_vfprintf_r+0x358>
    2764:	0ec12683          	lw	a3,236(sp)
    2768:	0e812703          	lw	a4,232(sp)
    276c:	01742023          	sw	s7,0(s0)
    2770:	012686b3          	add	a3,a3,s2
    2774:	00170713          	addi	a4,a4,1
    2778:	01242223          	sw	s2,4(s0)
    277c:	0ed12623          	sw	a3,236(sp)
    2780:	0ee12423          	sw	a4,232(sp)
    2784:	00700693          	li	a3,7
    2788:	00840413          	addi	s0,s0,8
    278c:	30e6c663          	blt	a3,a4,2a98 <_vfprintf_r+0x47c>
    2790:	00812783          	lw	a5,8(sp)
    2794:	0004c703          	lbu	a4,0(s1)
    2798:	012787b3          	add	a5,a5,s2
    279c:	00f12423          	sw	a5,8(sp)
    27a0:	1c070a63          	beqz	a4,2974 <_vfprintf_r+0x358>
    27a4:	00000313          	li	t1,0
    27a8:	0014c883          	lbu	a7,1(s1)
    27ac:	0c0103a3          	sb	zero,199(sp)
    27b0:	00148493          	addi	s1,s1,1
    27b4:	fff00913          	li	s2,-1
    27b8:	00000b13          	li	s6,0
    27bc:	05a00993          	li	s3,90
    27c0:	00030a13          	mv	s4,t1
    27c4:	00148493          	addi	s1,s1,1
    27c8:	fe088793          	addi	a5,a7,-32
    27cc:	04f9ea63          	bltu	s3,a5,2820 <_vfprintf_r+0x204>
    27d0:	00015717          	auipc	a4,0x15
    27d4:	78470713          	addi	a4,a4,1924 # 17f54 <__flash_rodata_start+0x2c4>
    27d8:	00279793          	slli	a5,a5,0x2
    27dc:	00e787b3          	add	a5,a5,a4
    27e0:	0007a783          	lw	a5,0(a5)
    27e4:	00e787b3          	add	a5,a5,a4
    27e8:	00078067          	jr	a5
    27ec:	00000a13          	li	s4,0
    27f0:	fd088793          	addi	a5,a7,-48
    27f4:	00900693          	li	a3,9
    27f8:	0004c883          	lbu	a7,0(s1)
    27fc:	002a1713          	slli	a4,s4,0x2
    2800:	01470333          	add	t1,a4,s4
    2804:	00131313          	slli	t1,t1,0x1
    2808:	00678a33          	add	s4,a5,t1
    280c:	fd088793          	addi	a5,a7,-48
    2810:	00148493          	addi	s1,s1,1
    2814:	fef6f2e3          	bgeu	a3,a5,27f8 <_vfprintf_r+0x1dc>
    2818:	fe088793          	addi	a5,a7,-32
    281c:	faf9fae3          	bgeu	s3,a5,27d0 <_vfprintf_r+0x1b4>
    2820:	000a0313          	mv	t1,s4
    2824:	14088863          	beqz	a7,2974 <_vfprintf_r+0x358>
    2828:	15110623          	sb	a7,332(sp)
    282c:	0c0103a3          	sb	zero,199(sp)
    2830:	00100c13          	li	s8,1
    2834:	00100993          	li	s3,1
    2838:	14c10b93          	addi	s7,sp,332
    283c:	00012623          	sw	zero,12(sp)
    2840:	00000913          	li	s2,0
    2844:	02012023          	sw	zero,32(sp)
    2848:	00012e23          	sw	zero,28(sp)
    284c:	00012a23          	sw	zero,20(sp)
    2850:	002b7293          	andi	t0,s6,2
    2854:	00028463          	beqz	t0,285c <_vfprintf_r+0x240>
    2858:	002c0c13          	addi	s8,s8,2
    285c:	084b7d13          	andi	s10,s6,132
    2860:	000d1663          	bnez	s10,286c <_vfprintf_r+0x250>
    2864:	418306b3          	sub	a3,t1,s8
    2868:	52d04ae3          	bgtz	a3,359c <_vfprintf_r+0xf80>
    286c:	0c714683          	lbu	a3,199(sp)
    2870:	02068c63          	beqz	a3,28a8 <_vfprintf_r+0x28c>
    2874:	0ec12603          	lw	a2,236(sp)
    2878:	0e812683          	lw	a3,232(sp)
    287c:	0c710593          	addi	a1,sp,199
    2880:	00160613          	addi	a2,a2,1
    2884:	00b42023          	sw	a1,0(s0)
    2888:	00168693          	addi	a3,a3,1
    288c:	00100593          	li	a1,1
    2890:	00b42223          	sw	a1,4(s0)
    2894:	0ec12623          	sw	a2,236(sp)
    2898:	0ed12423          	sw	a3,232(sp)
    289c:	00700613          	li	a2,7
    28a0:	00840413          	addi	s0,s0,8
    28a4:	30d64863          	blt	a2,a3,2bb4 <_vfprintf_r+0x598>
    28a8:	02028c63          	beqz	t0,28e0 <_vfprintf_r+0x2c4>
    28ac:	0ec12603          	lw	a2,236(sp)
    28b0:	0e812683          	lw	a3,232(sp)
    28b4:	0c810793          	addi	a5,sp,200
    28b8:	00260613          	addi	a2,a2,2
    28bc:	00168693          	addi	a3,a3,1
    28c0:	00200593          	li	a1,2
    28c4:	00f42023          	sw	a5,0(s0)
    28c8:	00b42223          	sw	a1,4(s0)
    28cc:	0ec12623          	sw	a2,236(sp)
    28d0:	0ed12423          	sw	a3,232(sp)
    28d4:	00700613          	li	a2,7
    28d8:	00840413          	addi	s0,s0,8
    28dc:	5cd64ee3          	blt	a2,a3,36b8 <_vfprintf_r+0x109c>
    28e0:	08000693          	li	a3,128
    28e4:	28dd0ce3          	beq	s10,a3,337c <_vfprintf_r+0xd60>
    28e8:	41390933          	sub	s2,s2,s3
    28ec:	39204ae3          	bgtz	s2,3480 <_vfprintf_r+0xe64>
    28f0:	100b7693          	andi	a3,s6,256
    28f4:	06069ce3          	bnez	a3,316c <_vfprintf_r+0xb50>
    28f8:	0ec12683          	lw	a3,236(sp)
    28fc:	0e812783          	lw	a5,232(sp)
    2900:	01742023          	sw	s7,0(s0)
    2904:	00d986b3          	add	a3,s3,a3
    2908:	00178793          	addi	a5,a5,1
    290c:	01342223          	sw	s3,4(s0)
    2910:	0ed12623          	sw	a3,236(sp)
    2914:	0ef12423          	sw	a5,232(sp)
    2918:	00700613          	li	a2,7
    291c:	3ef64063          	blt	a2,a5,2cfc <_vfprintf_r+0x6e0>
    2920:	00840413          	addi	s0,s0,8
    2924:	004b7713          	andi	a4,s6,4
    2928:	00070663          	beqz	a4,2934 <_vfprintf_r+0x318>
    292c:	41830933          	sub	s2,t1,s8
    2930:	3f204a63          	bgtz	s2,2d24 <_vfprintf_r+0x708>
    2934:	01835463          	bge	t1,s8,293c <_vfprintf_r+0x320>
    2938:	000c0313          	mv	t1,s8
    293c:	00812783          	lw	a5,8(sp)
    2940:	006787b3          	add	a5,a5,t1
    2944:	00f12423          	sw	a5,8(sp)
    2948:	40069ee3          	bnez	a3,3564 <_vfprintf_r+0xf48>
    294c:	00c12783          	lw	a5,12(sp)
    2950:	0e012423          	sw	zero,232(sp)
    2954:	00078863          	beqz	a5,2964 <_vfprintf_r+0x348>
    2958:	00c12583          	lw	a1,12(sp)
    295c:	00412503          	lw	a0,4(sp)
    2960:	7ec030ef          	jal	ra,614c <_free_r>
    2964:	10c10413          	addi	s0,sp,268
    2968:	00048b93          	mv	s7,s1
    296c:	000bc703          	lbu	a4,0(s7)
    2970:	dc071ae3          	bnez	a4,2744 <_vfprintf_r+0x128>
    2974:	0ec12783          	lw	a5,236(sp)
    2978:	00078463          	beqz	a5,2980 <_vfprintf_r+0x364>
    297c:	3ad0106f          	j	4528 <_vfprintf_r+0x1f0c>
    2980:	0e012423          	sw	zero,232(sp)
    2984:	064da703          	lw	a4,100(s11)
    2988:	00cd9783          	lh	a5,12(s11)
    298c:	00177713          	andi	a4,a4,1
    2990:	44070a63          	beqz	a4,2de4 <_vfprintf_r+0x7c8>
    2994:	0407f793          	andi	a5,a5,64
    2998:	00078463          	beqz	a5,29a0 <_vfprintf_r+0x384>
    299c:	4700206f          	j	4e0c <_vfprintf_r+0x27f0>
    29a0:	1ec12083          	lw	ra,492(sp)
    29a4:	1e812403          	lw	s0,488(sp)
    29a8:	00812503          	lw	a0,8(sp)
    29ac:	1e412483          	lw	s1,484(sp)
    29b0:	1e012903          	lw	s2,480(sp)
    29b4:	1dc12983          	lw	s3,476(sp)
    29b8:	1d812a03          	lw	s4,472(sp)
    29bc:	1d412a83          	lw	s5,468(sp)
    29c0:	1d012b03          	lw	s6,464(sp)
    29c4:	1cc12b83          	lw	s7,460(sp)
    29c8:	1c812c03          	lw	s8,456(sp)
    29cc:	1c412c83          	lw	s9,452(sp)
    29d0:	1c012d03          	lw	s10,448(sp)
    29d4:	1bc12d83          	lw	s11,444(sp)
    29d8:	1f010113          	addi	sp,sp,496
    29dc:	00008067          	ret
    29e0:	00412503          	lw	a0,4(sp)
    29e4:	000d8593          	mv	a1,s11
    29e8:	155020ef          	jal	ra,533c <__swsetup_r>
    29ec:	00050463          	beqz	a0,29f4 <_vfprintf_r+0x3d8>
    29f0:	3fc0206f          	j	4dec <_vfprintf_r+0x27d0>
    29f4:	00cd9783          	lh	a5,12(s11)
    29f8:	00a00693          	li	a3,10
    29fc:	01a7f713          	andi	a4,a5,26
    2a00:	d0d712e3          	bne	a4,a3,2704 <_vfprintf_r+0xe8>
    2a04:	00ed9703          	lh	a4,14(s11)
    2a08:	ce074ee3          	bltz	a4,2704 <_vfprintf_r+0xe8>
    2a0c:	064da703          	lw	a4,100(s11)
    2a10:	00177713          	andi	a4,a4,1
    2a14:	00071863          	bnez	a4,2a24 <_vfprintf_r+0x408>
    2a18:	2007f793          	andi	a5,a5,512
    2a1c:	00079463          	bnez	a5,2a24 <_vfprintf_r+0x408>
    2a20:	3750106f          	j	4594 <_vfprintf_r+0x1f78>
    2a24:	01012683          	lw	a3,16(sp)
    2a28:	00412503          	lw	a0,4(sp)
    2a2c:	00098613          	mv	a2,s3
    2a30:	000d8593          	mv	a1,s11
    2a34:	011020ef          	jal	ra,5244 <__sbprintf>
    2a38:	00a12423          	sw	a0,8(sp)
    2a3c:	f65ff06f          	j	29a0 <_vfprintf_r+0x384>
    2a40:	00412a83          	lw	s5,4(sp)
    2a44:	000a8513          	mv	a0,s5
    2a48:	471060ef          	jal	ra,96b8 <_localeconv_r>
    2a4c:	00452783          	lw	a5,4(a0)
    2a50:	00078513          	mv	a0,a5
    2a54:	02f12c23          	sw	a5,56(sp)
    2a58:	addff0ef          	jal	ra,2534 <strlen>
    2a5c:	00050793          	mv	a5,a0
    2a60:	000a8513          	mv	a0,s5
    2a64:	04f12023          	sw	a5,64(sp)
    2a68:	00078a93          	mv	s5,a5
    2a6c:	44d060ef          	jal	ra,96b8 <_localeconv_r>
    2a70:	00852703          	lw	a4,8(a0)
    2a74:	02e12a23          	sw	a4,52(sp)
    2a78:	000a8463          	beqz	s5,2a80 <_vfprintf_r+0x464>
    2a7c:	0f00106f          	j	3b6c <_vfprintf_r+0x1550>
    2a80:	0004c883          	lbu	a7,0(s1)
    2a84:	d41ff06f          	j	27c4 <_vfprintf_r+0x1a8>
    2a88:	41748933          	sub	s2,s1,s7
    2a8c:	cd749ce3          	bne	s1,s7,2764 <_vfprintf_r+0x148>
    2a90:	0004c703          	lbu	a4,0(s1)
    2a94:	d0dff06f          	j	27a0 <_vfprintf_r+0x184>
    2a98:	00412503          	lw	a0,4(sp)
    2a9c:	0e410613          	addi	a2,sp,228
    2aa0:	000d8593          	mv	a1,s11
    2aa4:	0e00c0ef          	jal	ra,eb84 <__sprint_r>
    2aa8:	ec051ee3          	bnez	a0,2984 <_vfprintf_r+0x368>
    2aac:	10c10413          	addi	s0,sp,268
    2ab0:	ce1ff06f          	j	2790 <_vfprintf_r+0x174>
    2ab4:	008b7693          	andi	a3,s6,8
    2ab8:	000a0313          	mv	t1,s4
    2abc:	00068463          	beqz	a3,2ac4 <_vfprintf_r+0x4a8>
    2ac0:	0880106f          	j	3b48 <_vfprintf_r+0x152c>
    2ac4:	01012783          	lw	a5,16(sp)
    2ac8:	0b010513          	addi	a0,sp,176
    2acc:	01112623          	sw	a7,12(sp)
    2ad0:	00778a93          	addi	s5,a5,7
    2ad4:	ff8afa93          	andi	s5,s5,-8
    2ad8:	000aa583          	lw	a1,0(s5)
    2adc:	004aa603          	lw	a2,4(s5)
    2ae0:	008a8793          	addi	a5,s5,8
    2ae4:	01412a23          	sw	s4,20(sp)
    2ae8:	00f12823          	sw	a5,16(sp)
    2aec:	2b1130ef          	jal	ra,1659c <__extenddftf2>
    2af0:	0b012803          	lw	a6,176(sp)
    2af4:	0b412583          	lw	a1,180(sp)
    2af8:	0b812603          	lw	a2,184(sp)
    2afc:	0bc12683          	lw	a3,188(sp)
    2b00:	01412303          	lw	t1,20(sp)
    2b04:	00c12883          	lw	a7,12(sp)
    2b08:	0f010513          	addi	a0,sp,240
    2b0c:	00612a23          	sw	t1,20(sp)
    2b10:	01112623          	sw	a7,12(sp)
    2b14:	0ed12e23          	sw	a3,252(sp)
    2b18:	0f012823          	sw	a6,240(sp)
    2b1c:	0eb12a23          	sw	a1,244(sp)
    2b20:	0ec12c23          	sw	a2,248(sp)
    2b24:	315060ef          	jal	ra,9638 <_ldcheck>
    2b28:	0ca12623          	sw	a0,204(sp)
    2b2c:	00200693          	li	a3,2
    2b30:	00c12883          	lw	a7,12(sp)
    2b34:	01412303          	lw	t1,20(sp)
    2b38:	00d51463          	bne	a0,a3,2b40 <_vfprintf_r+0x524>
    2b3c:	5040106f          	j	4040 <_vfprintf_r+0x1a24>
    2b40:	00100693          	li	a3,1
    2b44:	00d51463          	bne	a0,a3,2b4c <_vfprintf_r+0x530>
    2b48:	6e00106f          	j	4228 <_vfprintf_r+0x1c0c>
    2b4c:	06100693          	li	a3,97
    2b50:	00d89463          	bne	a7,a3,2b58 <_vfprintf_r+0x53c>
    2b54:	12c0106f          	j	3c80 <_vfprintf_r+0x1664>
    2b58:	04100693          	li	a3,65
    2b5c:	05800793          	li	a5,88
    2b60:	00d89463          	bne	a7,a3,2b68 <_vfprintf_r+0x54c>
    2b64:	1200106f          	j	3c84 <_vfprintf_r+0x1668>
    2b68:	fff00693          	li	a3,-1
    2b6c:	00d91463          	bne	s2,a3,2b74 <_vfprintf_r+0x558>
    2b70:	4540206f          	j	4fc4 <_vfprintf_r+0x29a8>
    2b74:	fdf8f693          	andi	a3,a7,-33
    2b78:	04700613          	li	a2,71
    2b7c:	00c69463          	bne	a3,a2,2b84 <_vfprintf_r+0x568>
    2b80:	4340206f          	j	4fb4 <_vfprintf_r+0x2998>
    2b84:	0fc12d03          	lw	s10,252(sp)
    2b88:	100b6793          	ori	a5,s6,256
    2b8c:	04f12623          	sw	a5,76(sp)
    2b90:	03612023          	sw	s6,32(sp)
    2b94:	0f012f03          	lw	t5,240(sp)
    2b98:	0f412e83          	lw	t4,244(sp)
    2b9c:	0f812e03          	lw	t3,248(sp)
    2ba0:	000d5463          	bgez	s10,2ba8 <_vfprintf_r+0x58c>
    2ba4:	1a50106f          	j	4548 <_vfprintf_r+0x1f2c>
    2ba8:	06012023          	sw	zero,96(sp)
    2bac:	00012623          	sw	zero,12(sp)
    2bb0:	1240106f          	j	3cd4 <_vfprintf_r+0x16b8>
    2bb4:	00412503          	lw	a0,4(sp)
    2bb8:	0e410613          	addi	a2,sp,228
    2bbc:	000d8593          	mv	a1,s11
    2bc0:	04612423          	sw	t1,72(sp)
    2bc4:	05112223          	sw	a7,68(sp)
    2bc8:	02512e23          	sw	t0,60(sp)
    2bcc:	7b90b0ef          	jal	ra,eb84 <__sprint_r>
    2bd0:	1a0514e3          	bnez	a0,3578 <_vfprintf_r+0xf5c>
    2bd4:	04812303          	lw	t1,72(sp)
    2bd8:	04412883          	lw	a7,68(sp)
    2bdc:	03c12283          	lw	t0,60(sp)
    2be0:	10c10413          	addi	s0,sp,268
    2be4:	cc5ff06f          	j	28a8 <_vfprintf_r+0x28c>
    2be8:	01812783          	lw	a5,24(sp)
    2bec:	00100613          	li	a2,1
    2bf0:	00840993          	addi	s3,s0,8
    2bf4:	48f652e3          	bge	a2,a5,3878 <_vfprintf_r+0x125c>
    2bf8:	0ec12683          	lw	a3,236(sp)
    2bfc:	0e812903          	lw	s2,232(sp)
    2c00:	00100613          	li	a2,1
    2c04:	00168693          	addi	a3,a3,1
    2c08:	00190913          	addi	s2,s2,1
    2c0c:	00c42223          	sw	a2,4(s0)
    2c10:	01742023          	sw	s7,0(s0)
    2c14:	0ed12623          	sw	a3,236(sp)
    2c18:	0f212423          	sw	s2,232(sp)
    2c1c:	00700613          	li	a2,7
    2c20:	01265463          	bge	a2,s2,2c28 <_vfprintf_r+0x60c>
    2c24:	2580106f          	j	3e7c <_vfprintf_r+0x1860>
    2c28:	02412783          	lw	a5,36(sp)
    2c2c:	02812703          	lw	a4,40(sp)
    2c30:	00190913          	addi	s2,s2,1
    2c34:	00d78d33          	add	s10,a5,a3
    2c38:	00e9a023          	sw	a4,0(s3)
    2c3c:	00f9a223          	sw	a5,4(s3)
    2c40:	0fa12623          	sw	s10,236(sp)
    2c44:	0f212423          	sw	s2,232(sp)
    2c48:	00700693          	li	a3,7
    2c4c:	00898993          	addi	s3,s3,8
    2c50:	0126d463          	bge	a3,s2,2c58 <_vfprintf_r+0x63c>
    2c54:	2540106f          	j	3ea8 <_vfprintf_r+0x188c>
    2c58:	0f012683          	lw	a3,240(sp)
    2c5c:	0a010593          	addi	a1,sp,160
    2c60:	0b010513          	addi	a0,sp,176
    2c64:	0ad12823          	sw	a3,176(sp)
    2c68:	0f412683          	lw	a3,244(sp)
    2c6c:	00612a23          	sw	t1,20(sp)
    2c70:	0a012023          	sw	zero,160(sp)
    2c74:	0ad12a23          	sw	a3,180(sp)
    2c78:	0f812683          	lw	a3,248(sp)
    2c7c:	0a012223          	sw	zero,164(sp)
    2c80:	0a012423          	sw	zero,168(sp)
    2c84:	0ad12c23          	sw	a3,184(sp)
    2c88:	0fc12683          	lw	a3,252(sp)
    2c8c:	0a012623          	sw	zero,172(sp)
    2c90:	0ad12e23          	sw	a3,188(sp)
    2c94:	1d5100ef          	jal	ra,13668 <__eqtf2>
    2c98:	01812783          	lw	a5,24(sp)
    2c9c:	01412303          	lw	t1,20(sp)
    2ca0:	fff78413          	addi	s0,a5,-1
    2ca4:	420508e3          	beqz	a0,38d4 <_vfprintf_r+0x12b8>
    2ca8:	001b8793          	addi	a5,s7,1
    2cac:	00190913          	addi	s2,s2,1
    2cb0:	008d0d33          	add	s10,s10,s0
    2cb4:	00f9a023          	sw	a5,0(s3)
    2cb8:	0089a223          	sw	s0,4(s3)
    2cbc:	0fa12623          	sw	s10,236(sp)
    2cc0:	0f212423          	sw	s2,232(sp)
    2cc4:	00700793          	li	a5,7
    2cc8:	00898993          	addi	s3,s3,8
    2ccc:	3d27cee3          	blt	a5,s2,38a8 <_vfprintf_r+0x128c>
    2cd0:	03012703          	lw	a4,48(sp)
    2cd4:	0d410613          	addi	a2,sp,212
    2cd8:	00190793          	addi	a5,s2,1
    2cdc:	01a706b3          	add	a3,a4,s10
    2ce0:	00c9a023          	sw	a2,0(s3)
    2ce4:	00e9a223          	sw	a4,4(s3)
    2ce8:	0ed12623          	sw	a3,236(sp)
    2cec:	0ef12423          	sw	a5,232(sp)
    2cf0:	00700613          	li	a2,7
    2cf4:	00898413          	addi	s0,s3,8
    2cf8:	c2f656e3          	bge	a2,a5,2924 <_vfprintf_r+0x308>
    2cfc:	00412503          	lw	a0,4(sp)
    2d00:	0e410613          	addi	a2,sp,228
    2d04:	000d8593          	mv	a1,s11
    2d08:	00612a23          	sw	t1,20(sp)
    2d0c:	6790b0ef          	jal	ra,eb84 <__sprint_r>
    2d10:	060514e3          	bnez	a0,3578 <_vfprintf_r+0xf5c>
    2d14:	0ec12683          	lw	a3,236(sp)
    2d18:	01412303          	lw	t1,20(sp)
    2d1c:	10c10413          	addi	s0,sp,268
    2d20:	c05ff06f          	j	2924 <_vfprintf_r+0x308>
    2d24:	01000713          	li	a4,16
    2d28:	0e812783          	lw	a5,232(sp)
    2d2c:	00015a97          	auipc	s5,0x15
    2d30:	42ca8a93          	addi	s5,s5,1068 # 18158 <blanks.1>
    2d34:	07275663          	bge	a4,s2,2da0 <_vfprintf_r+0x784>
    2d38:	00412a03          	lw	s4,4(sp)
    2d3c:	01000993          	li	s3,16
    2d40:	00700d13          	li	s10,7
    2d44:	00030b13          	mv	s6,t1
    2d48:	00c0006f          	j	2d54 <_vfprintf_r+0x738>
    2d4c:	ff090913          	addi	s2,s2,-16
    2d50:	0529d663          	bge	s3,s2,2d9c <_vfprintf_r+0x780>
    2d54:	01068693          	addi	a3,a3,16
    2d58:	00178793          	addi	a5,a5,1
    2d5c:	01542023          	sw	s5,0(s0)
    2d60:	01342223          	sw	s3,4(s0)
    2d64:	0ed12623          	sw	a3,236(sp)
    2d68:	0ef12423          	sw	a5,232(sp)
    2d6c:	00840413          	addi	s0,s0,8
    2d70:	fcfd5ee3          	bge	s10,a5,2d4c <_vfprintf_r+0x730>
    2d74:	0e410613          	addi	a2,sp,228
    2d78:	000d8593          	mv	a1,s11
    2d7c:	000a0513          	mv	a0,s4
    2d80:	6050b0ef          	jal	ra,eb84 <__sprint_r>
    2d84:	7e051a63          	bnez	a0,3578 <_vfprintf_r+0xf5c>
    2d88:	ff090913          	addi	s2,s2,-16
    2d8c:	0ec12683          	lw	a3,236(sp)
    2d90:	0e812783          	lw	a5,232(sp)
    2d94:	10c10413          	addi	s0,sp,268
    2d98:	fb29cee3          	blt	s3,s2,2d54 <_vfprintf_r+0x738>
    2d9c:	000b0313          	mv	t1,s6
    2da0:	012686b3          	add	a3,a3,s2
    2da4:	00178793          	addi	a5,a5,1
    2da8:	01542023          	sw	s5,0(s0)
    2dac:	01242223          	sw	s2,4(s0)
    2db0:	0ed12623          	sw	a3,236(sp)
    2db4:	0ef12423          	sw	a5,232(sp)
    2db8:	00700713          	li	a4,7
    2dbc:	b6f75ce3          	bge	a4,a5,2934 <_vfprintf_r+0x318>
    2dc0:	00412503          	lw	a0,4(sp)
    2dc4:	0e410613          	addi	a2,sp,228
    2dc8:	000d8593          	mv	a1,s11
    2dcc:	00612a23          	sw	t1,20(sp)
    2dd0:	5b50b0ef          	jal	ra,eb84 <__sprint_r>
    2dd4:	7a051263          	bnez	a0,3578 <_vfprintf_r+0xf5c>
    2dd8:	0ec12683          	lw	a3,236(sp)
    2ddc:	01412303          	lw	t1,20(sp)
    2de0:	b55ff06f          	j	2934 <_vfprintf_r+0x318>
    2de4:	2007f713          	andi	a4,a5,512
    2de8:	ba0716e3          	bnez	a4,2994 <_vfprintf_r+0x378>
    2dec:	058da503          	lw	a0,88(s11)
    2df0:	10d060ef          	jal	ra,96fc <__retarget_lock_release_recursive>
    2df4:	00cd9783          	lh	a5,12(s11)
    2df8:	b9dff06f          	j	2994 <_vfprintf_r+0x378>
    2dfc:	00412503          	lw	a0,4(sp)
    2e00:	619020ef          	jal	ra,5c18 <__sinit>
    2e04:	899ff06f          	j	269c <_vfprintf_r+0x80>
    2e08:	0004c883          	lbu	a7,0(s1)
    2e0c:	020b6b13          	ori	s6,s6,32
    2e10:	9b5ff06f          	j	27c4 <_vfprintf_r+0x1a8>
    2e14:	01012703          	lw	a4,16(sp)
    2e18:	000a0313          	mv	t1,s4
    2e1c:	0c0103a3          	sb	zero,199(sp)
    2e20:	00072783          	lw	a5,0(a4)
    2e24:	00470713          	addi	a4,a4,4
    2e28:	00e12823          	sw	a4,16(sp)
    2e2c:	14f10623          	sb	a5,332(sp)
    2e30:	00100c13          	li	s8,1
    2e34:	00100993          	li	s3,1
    2e38:	14c10b93          	addi	s7,sp,332
    2e3c:	a01ff06f          	j	283c <_vfprintf_r+0x220>
    2e40:	01012783          	lw	a5,16(sp)
    2e44:	0c0103a3          	sb	zero,199(sp)
    2e48:	000a0313          	mv	t1,s4
    2e4c:	0007ab83          	lw	s7,0(a5)
    2e50:	00478a93          	addi	s5,a5,4
    2e54:	600b86e3          	beqz	s7,3c60 <_vfprintf_r+0x1644>
    2e58:	fff00693          	li	a3,-1
    2e5c:	00d91463          	bne	s2,a3,2e64 <_vfprintf_r+0x848>
    2e60:	3780106f          	j	41d8 <_vfprintf_r+0x1bbc>
    2e64:	00090613          	mv	a2,s2
    2e68:	00000593          	li	a1,0
    2e6c:	000b8513          	mv	a0,s7
    2e70:	01112823          	sw	a7,16(sp)
    2e74:	01412a23          	sw	s4,20(sp)
    2e78:	290070ef          	jal	ra,a108 <memchr>
    2e7c:	00a12623          	sw	a0,12(sp)
    2e80:	01012883          	lw	a7,16(sp)
    2e84:	01412303          	lw	t1,20(sp)
    2e88:	00051463          	bnez	a0,2e90 <_vfprintf_r+0x874>
    2e8c:	6890106f          	j	4d14 <_vfprintf_r+0x26f8>
    2e90:	00c12783          	lw	a5,12(sp)
    2e94:	0c714683          	lbu	a3,199(sp)
    2e98:	01512823          	sw	s5,16(sp)
    2e9c:	417789b3          	sub	s3,a5,s7
    2ea0:	fff9c813          	not	a6,s3
    2ea4:	41f85813          	srai	a6,a6,0x1f
    2ea8:	00012623          	sw	zero,12(sp)
    2eac:	02012023          	sw	zero,32(sp)
    2eb0:	00012e23          	sw	zero,28(sp)
    2eb4:	00012a23          	sw	zero,20(sp)
    2eb8:	0109fc33          	and	s8,s3,a6
    2ebc:	00000913          	li	s2,0
    2ec0:	980688e3          	beqz	a3,2850 <_vfprintf_r+0x234>
    2ec4:	001c0c13          	addi	s8,s8,1
    2ec8:	989ff06f          	j	2850 <_vfprintf_r+0x234>
    2ecc:	01012783          	lw	a5,16(sp)
    2ed0:	0007aa03          	lw	s4,0(a5)
    2ed4:	00478793          	addi	a5,a5,4
    2ed8:	360a54e3          	bgez	s4,3a40 <_vfprintf_r+0x1424>
    2edc:	41400a33          	neg	s4,s4
    2ee0:	00f12823          	sw	a5,16(sp)
    2ee4:	0004c883          	lbu	a7,0(s1)
    2ee8:	004b6b13          	ori	s6,s6,4
    2eec:	8d9ff06f          	j	27c4 <_vfprintf_r+0x1a8>
    2ef0:	0004c883          	lbu	a7,0(s1)
    2ef4:	06800793          	li	a5,104
    2ef8:	54f884e3          	beq	a7,a5,3c40 <_vfprintf_r+0x1624>
    2efc:	040b6b13          	ori	s6,s6,64
    2f00:	8c5ff06f          	j	27c4 <_vfprintf_r+0x1a8>
    2f04:	02b00793          	li	a5,43
    2f08:	0004c883          	lbu	a7,0(s1)
    2f0c:	0cf103a3          	sb	a5,199(sp)
    2f10:	8b5ff06f          	j	27c4 <_vfprintf_r+0x1a8>
    2f14:	0004c883          	lbu	a7,0(s1)
    2f18:	080b6b13          	ori	s6,s6,128
    2f1c:	8a9ff06f          	j	27c4 <_vfprintf_r+0x1a8>
    2f20:	0004c883          	lbu	a7,0(s1)
    2f24:	02a00793          	li	a5,42
    2f28:	00148713          	addi	a4,s1,1
    2f2c:	00f89463          	bne	a7,a5,2f34 <_vfprintf_r+0x918>
    2f30:	2bc0206f          	j	51ec <_vfprintf_r+0x2bd0>
    2f34:	fd088793          	addi	a5,a7,-48
    2f38:	00900613          	li	a2,9
    2f3c:	00070493          	mv	s1,a4
    2f40:	00000913          	li	s2,0
    2f44:	00900693          	li	a3,9
    2f48:	88f660e3          	bltu	a2,a5,27c8 <_vfprintf_r+0x1ac>
    2f4c:	0004c883          	lbu	a7,0(s1)
    2f50:	00291713          	slli	a4,s2,0x2
    2f54:	01270933          	add	s2,a4,s2
    2f58:	00191913          	slli	s2,s2,0x1
    2f5c:	00f90933          	add	s2,s2,a5
    2f60:	fd088793          	addi	a5,a7,-48
    2f64:	00148493          	addi	s1,s1,1
    2f68:	fef6f2e3          	bgeu	a3,a5,2f4c <_vfprintf_r+0x930>
    2f6c:	85dff06f          	j	27c8 <_vfprintf_r+0x1ac>
    2f70:	0004c883          	lbu	a7,0(s1)
    2f74:	001b6b13          	ori	s6,s6,1
    2f78:	84dff06f          	j	27c4 <_vfprintf_r+0x1a8>
    2f7c:	0c714783          	lbu	a5,199(sp)
    2f80:	0004c883          	lbu	a7,0(s1)
    2f84:	840790e3          	bnez	a5,27c4 <_vfprintf_r+0x1a8>
    2f88:	02000793          	li	a5,32
    2f8c:	0cf103a3          	sb	a5,199(sp)
    2f90:	835ff06f          	j	27c4 <_vfprintf_r+0x1a8>
    2f94:	000a0313          	mv	t1,s4
    2f98:	010b6b13          	ori	s6,s6,16
    2f9c:	020b7793          	andi	a5,s6,32
    2fa0:	1a078ae3          	beqz	a5,3954 <_vfprintf_r+0x1338>
    2fa4:	01012783          	lw	a5,16(sp)
    2fa8:	00778a93          	addi	s5,a5,7
    2fac:	ff8afa93          	andi	s5,s5,-8
    2fb0:	000aa983          	lw	s3,0(s5)
    2fb4:	004aac03          	lw	s8,4(s5)
    2fb8:	008a8793          	addi	a5,s5,8
    2fbc:	00f12823          	sw	a5,16(sp)
    2fc0:	bffb7d13          	andi	s10,s6,-1025
    2fc4:	00000693          	li	a3,0
    2fc8:	00000793          	li	a5,0
    2fcc:	0cf103a3          	sb	a5,199(sp)
    2fd0:	fff00793          	li	a5,-1
    2fd4:	2ef90063          	beq	s2,a5,32b4 <_vfprintf_r+0xc98>
    2fd8:	0189e7b3          	or	a5,s3,s8
    2fdc:	f7fd7b13          	andi	s6,s10,-129
    2fe0:	2c079863          	bnez	a5,32b0 <_vfprintf_r+0xc94>
    2fe4:	32091e63          	bnez	s2,3320 <_vfprintf_r+0xd04>
    2fe8:	220692e3          	bnez	a3,3a0c <_vfprintf_r+0x13f0>
    2fec:	001d7993          	andi	s3,s10,1
    2ff0:	1b010b93          	addi	s7,sp,432
    2ff4:	2c099ee3          	bnez	s3,3ad0 <_vfprintf_r+0x14b4>
    2ff8:	0c714683          	lbu	a3,199(sp)
    2ffc:	00090c13          	mv	s8,s2
    3000:	01395463          	bge	s2,s3,3008 <_vfprintf_r+0x9ec>
    3004:	00098c13          	mv	s8,s3
    3008:	00012623          	sw	zero,12(sp)
    300c:	02012023          	sw	zero,32(sp)
    3010:	00012e23          	sw	zero,28(sp)
    3014:	00012a23          	sw	zero,20(sp)
    3018:	ea0696e3          	bnez	a3,2ec4 <_vfprintf_r+0x8a8>
    301c:	835ff06f          	j	2850 <_vfprintf_r+0x234>
    3020:	000a0313          	mv	t1,s4
    3024:	010b6d13          	ori	s10,s6,16
    3028:	020d7793          	andi	a5,s10,32
    302c:	1a0786e3          	beqz	a5,39d8 <_vfprintf_r+0x13bc>
    3030:	01012783          	lw	a5,16(sp)
    3034:	00100693          	li	a3,1
    3038:	00778a93          	addi	s5,a5,7
    303c:	ff8afa93          	andi	s5,s5,-8
    3040:	008a8793          	addi	a5,s5,8
    3044:	000aa983          	lw	s3,0(s5)
    3048:	004aac03          	lw	s8,4(s5)
    304c:	00f12823          	sw	a5,16(sp)
    3050:	f79ff06f          	j	2fc8 <_vfprintf_r+0x9ac>
    3054:	0004c883          	lbu	a7,0(s1)
    3058:	008b6b13          	ori	s6,s6,8
    305c:	f68ff06f          	j	27c4 <_vfprintf_r+0x1a8>
    3060:	01012703          	lw	a4,16(sp)
    3064:	ffff87b7          	lui	a5,0xffff8
    3068:	8307c793          	xori	a5,a5,-2000
    306c:	0cf11423          	sh	a5,200(sp)
    3070:	00470793          	addi	a5,a4,4
    3074:	00f12823          	sw	a5,16(sp)
    3078:	00015797          	auipc	a5,0x15
    307c:	ea878793          	addi	a5,a5,-344 # 17f20 <__flash_rodata_start+0x290>
    3080:	00072983          	lw	s3,0(a4)
    3084:	000a0313          	mv	t1,s4
    3088:	00000c13          	li	s8,0
    308c:	002b6d13          	ori	s10,s6,2
    3090:	02f12623          	sw	a5,44(sp)
    3094:	00200693          	li	a3,2
    3098:	07800893          	li	a7,120
    309c:	f2dff06f          	j	2fc8 <_vfprintf_r+0x9ac>
    30a0:	020b7793          	andi	a5,s6,32
    30a4:	26078ce3          	beqz	a5,3b1c <_vfprintf_r+0x1500>
    30a8:	01012783          	lw	a5,16(sp)
    30ac:	00812683          	lw	a3,8(sp)
    30b0:	0007a783          	lw	a5,0(a5)
    30b4:	41f6d713          	srai	a4,a3,0x1f
    30b8:	00d7a023          	sw	a3,0(a5)
    30bc:	00e7a223          	sw	a4,4(a5)
    30c0:	01012783          	lw	a5,16(sp)
    30c4:	00048b93          	mv	s7,s1
    30c8:	00478793          	addi	a5,a5,4
    30cc:	00f12823          	sw	a5,16(sp)
    30d0:	89dff06f          	j	296c <_vfprintf_r+0x350>
    30d4:	0004c883          	lbu	a7,0(s1)
    30d8:	06c00793          	li	a5,108
    30dc:	36f88ae3          	beq	a7,a5,3c50 <_vfprintf_r+0x1634>
    30e0:	010b6b13          	ori	s6,s6,16
    30e4:	ee0ff06f          	j	27c4 <_vfprintf_r+0x1a8>
    30e8:	000a0313          	mv	t1,s4
    30ec:	010b6b13          	ori	s6,s6,16
    30f0:	020b7793          	andi	a5,s6,32
    30f4:	080788e3          	beqz	a5,3984 <_vfprintf_r+0x1368>
    30f8:	01012783          	lw	a5,16(sp)
    30fc:	00778a93          	addi	s5,a5,7
    3100:	ff8afa93          	andi	s5,s5,-8
    3104:	004aa783          	lw	a5,4(s5)
    3108:	000aa983          	lw	s3,0(s5)
    310c:	008a8713          	addi	a4,s5,8
    3110:	00e12823          	sw	a4,16(sp)
    3114:	00078c13          	mv	s8,a5
    3118:	0a07c0e3          	bltz	a5,39b8 <_vfprintf_r+0x139c>
    311c:	fff00793          	li	a5,-1
    3120:	000b0d13          	mv	s10,s6
    3124:	02f90263          	beq	s2,a5,3148 <_vfprintf_r+0xb2c>
    3128:	0189e7b3          	or	a5,s3,s8
    312c:	f7fb7d13          	andi	s10,s6,-129
    3130:	00079c63          	bnez	a5,3148 <_vfprintf_r+0xb2c>
    3134:	02091063          	bnez	s2,3154 <_vfprintf_r+0xb38>
    3138:	00000993          	li	s3,0
    313c:	000d0b13          	mv	s6,s10
    3140:	1b010b93          	addi	s7,sp,432
    3144:	eb5ff06f          	j	2ff8 <_vfprintf_r+0x9dc>
    3148:	580c1ee3          	bnez	s8,3ee4 <_vfprintf_r+0x18c8>
    314c:	00900793          	li	a5,9
    3150:	5937eae3          	bltu	a5,s3,3ee4 <_vfprintf_r+0x18c8>
    3154:	03098993          	addi	s3,s3,48
    3158:	1b3107a3          	sb	s3,431(sp)
    315c:	000d0b13          	mv	s6,s10
    3160:	00100993          	li	s3,1
    3164:	1af10b93          	addi	s7,sp,431
    3168:	e91ff06f          	j	2ff8 <_vfprintf_r+0x9dc>
    316c:	06500693          	li	a3,101
    3170:	a716dce3          	bge	a3,a7,2be8 <_vfprintf_r+0x5cc>
    3174:	0f012683          	lw	a3,240(sp)
    3178:	0a010593          	addi	a1,sp,160
    317c:	0b010513          	addi	a0,sp,176
    3180:	0ad12823          	sw	a3,176(sp)
    3184:	0f412683          	lw	a3,244(sp)
    3188:	02612e23          	sw	t1,60(sp)
    318c:	0a012023          	sw	zero,160(sp)
    3190:	0ad12a23          	sw	a3,180(sp)
    3194:	0f812683          	lw	a3,248(sp)
    3198:	0a012223          	sw	zero,164(sp)
    319c:	0a012423          	sw	zero,168(sp)
    31a0:	0ad12c23          	sw	a3,184(sp)
    31a4:	0fc12683          	lw	a3,252(sp)
    31a8:	0a012623          	sw	zero,172(sp)
    31ac:	0ad12e23          	sw	a3,188(sp)
    31b0:	4b8100ef          	jal	ra,13668 <__eqtf2>
    31b4:	03c12303          	lw	t1,60(sp)
    31b8:	52051663          	bnez	a0,36e4 <_vfprintf_r+0x10c8>
    31bc:	0ec12683          	lw	a3,236(sp)
    31c0:	0e812783          	lw	a5,232(sp)
    31c4:	00015617          	auipc	a2,0x15
    31c8:	d8c60613          	addi	a2,a2,-628 # 17f50 <__flash_rodata_start+0x2c0>
    31cc:	00c42023          	sw	a2,0(s0)
    31d0:	00168693          	addi	a3,a3,1
    31d4:	00100613          	li	a2,1
    31d8:	00178793          	addi	a5,a5,1
    31dc:	00c42223          	sw	a2,4(s0)
    31e0:	0ed12623          	sw	a3,236(sp)
    31e4:	0ef12423          	sw	a5,232(sp)
    31e8:	00700613          	li	a2,7
    31ec:	00840413          	addi	s0,s0,8
    31f0:	5ef64ee3          	blt	a2,a5,3fec <_vfprintf_r+0x19d0>
    31f4:	0cc12783          	lw	a5,204(sp)
    31f8:	01812703          	lw	a4,24(sp)
    31fc:	00e7dee3          	bge	a5,a4,3a18 <_vfprintf_r+0x13fc>
    3200:	02812783          	lw	a5,40(sp)
    3204:	02412703          	lw	a4,36(sp)
    3208:	00700613          	li	a2,7
    320c:	00f42023          	sw	a5,0(s0)
    3210:	0e812783          	lw	a5,232(sp)
    3214:	00d706b3          	add	a3,a4,a3
    3218:	00e42223          	sw	a4,4(s0)
    321c:	00178793          	addi	a5,a5,1
    3220:	0ed12623          	sw	a3,236(sp)
    3224:	0ef12423          	sw	a5,232(sp)
    3228:	00840413          	addi	s0,s0,8
    322c:	1cf648e3          	blt	a2,a5,3bfc <_vfprintf_r+0x15e0>
    3230:	01812783          	lw	a5,24(sp)
    3234:	fff78913          	addi	s2,a5,-1
    3238:	ef205663          	blez	s2,2924 <_vfprintf_r+0x308>
    323c:	01000613          	li	a2,16
    3240:	0e812783          	lw	a5,232(sp)
    3244:	00015a97          	auipc	s5,0x15
    3248:	f24a8a93          	addi	s5,s5,-220 # 18168 <zeroes.0>
    324c:	5d2656e3          	bge	a2,s2,4018 <_vfprintf_r+0x19fc>
    3250:	00412a03          	lw	s4,4(sp)
    3254:	01000993          	li	s3,16
    3258:	00700d13          	li	s10,7
    325c:	00030b93          	mv	s7,t1
    3260:	00c0006f          	j	326c <_vfprintf_r+0xc50>
    3264:	ff090913          	addi	s2,s2,-16
    3268:	5b29d6e3          	bge	s3,s2,4014 <_vfprintf_r+0x19f8>
    326c:	01068693          	addi	a3,a3,16
    3270:	00178793          	addi	a5,a5,1
    3274:	01542023          	sw	s5,0(s0)
    3278:	01342223          	sw	s3,4(s0)
    327c:	0ed12623          	sw	a3,236(sp)
    3280:	0ef12423          	sw	a5,232(sp)
    3284:	00840413          	addi	s0,s0,8
    3288:	fcfd5ee3          	bge	s10,a5,3264 <_vfprintf_r+0xc48>
    328c:	0e410613          	addi	a2,sp,228
    3290:	000d8593          	mv	a1,s11
    3294:	000a0513          	mv	a0,s4
    3298:	0ed0b0ef          	jal	ra,eb84 <__sprint_r>
    329c:	2c051e63          	bnez	a0,3578 <_vfprintf_r+0xf5c>
    32a0:	0ec12683          	lw	a3,236(sp)
    32a4:	0e812783          	lw	a5,232(sp)
    32a8:	10c10413          	addi	s0,sp,268
    32ac:	fb9ff06f          	j	3264 <_vfprintf_r+0xc48>
    32b0:	000b0d13          	mv	s10,s6
    32b4:	00100793          	li	a5,1
    32b8:	e8f688e3          	beq	a3,a5,3148 <_vfprintf_r+0xb2c>
    32bc:	00200793          	li	a5,2
    32c0:	06f68c63          	beq	a3,a5,3338 <_vfprintf_r+0xd1c>
    32c4:	1b010b93          	addi	s7,sp,432
    32c8:	01dc1793          	slli	a5,s8,0x1d
    32cc:	0079f713          	andi	a4,s3,7
    32d0:	0039d993          	srli	s3,s3,0x3
    32d4:	03070713          	addi	a4,a4,48
    32d8:	0137e9b3          	or	s3,a5,s3
    32dc:	003c5c13          	srli	s8,s8,0x3
    32e0:	feeb8fa3          	sb	a4,-1(s7)
    32e4:	0189e7b3          	or	a5,s3,s8
    32e8:	000b8613          	mv	a2,s7
    32ec:	fffb8b93          	addi	s7,s7,-1
    32f0:	fc079ce3          	bnez	a5,32c8 <_vfprintf_r+0xcac>
    32f4:	001d7693          	andi	a3,s10,1
    32f8:	06068a63          	beqz	a3,336c <_vfprintf_r+0xd50>
    32fc:	03000693          	li	a3,48
    3300:	06d70663          	beq	a4,a3,336c <_vfprintf_r+0xd50>
    3304:	ffe60613          	addi	a2,a2,-2
    3308:	1b010793          	addi	a5,sp,432
    330c:	fedb8fa3          	sb	a3,-1(s7)
    3310:	40c789b3          	sub	s3,a5,a2
    3314:	000d0b13          	mv	s6,s10
    3318:	00060b93          	mv	s7,a2
    331c:	cddff06f          	j	2ff8 <_vfprintf_r+0x9dc>
    3320:	00100793          	li	a5,1
    3324:	00f69463          	bne	a3,a5,332c <_vfprintf_r+0xd10>
    3328:	3290106f          	j	4e50 <_vfprintf_r+0x2834>
    332c:	00200793          	li	a5,2
    3330:	000b0d13          	mv	s10,s6
    3334:	f8f698e3          	bne	a3,a5,32c4 <_vfprintf_r+0xca8>
    3338:	02c12683          	lw	a3,44(sp)
    333c:	1b010b93          	addi	s7,sp,432
    3340:	00f9f793          	andi	a5,s3,15
    3344:	00f687b3          	add	a5,a3,a5
    3348:	0007c703          	lbu	a4,0(a5)
    334c:	0049d993          	srli	s3,s3,0x4
    3350:	01cc1793          	slli	a5,s8,0x1c
    3354:	0137e9b3          	or	s3,a5,s3
    3358:	004c5c13          	srli	s8,s8,0x4
    335c:	feeb8fa3          	sb	a4,-1(s7)
    3360:	0189e7b3          	or	a5,s3,s8
    3364:	fffb8b93          	addi	s7,s7,-1
    3368:	fc079ce3          	bnez	a5,3340 <_vfprintf_r+0xd24>
    336c:	1b010793          	addi	a5,sp,432
    3370:	417789b3          	sub	s3,a5,s7
    3374:	000d0b13          	mv	s6,s10
    3378:	c81ff06f          	j	2ff8 <_vfprintf_r+0x9dc>
    337c:	41830d33          	sub	s10,t1,s8
    3380:	d7a05463          	blez	s10,28e8 <_vfprintf_r+0x2cc>
    3384:	01000513          	li	a0,16
    3388:	0ec12583          	lw	a1,236(sp)
    338c:	0e812603          	lw	a2,232(sp)
    3390:	00015a97          	auipc	s5,0x15
    3394:	dd8a8a93          	addi	s5,s5,-552 # 18168 <zeroes.0>
    3398:	09a55c63          	bge	a0,s10,3430 <_vfprintf_r+0xe14>
    339c:	00040793          	mv	a5,s0
    33a0:	000a8a13          	mv	s4,s5
    33a4:	01000e93          	li	t4,16
    33a8:	00098a93          	mv	s5,s3
    33ac:	00700f93          	li	t6,7
    33b0:	00090993          	mv	s3,s2
    33b4:	00088413          	mv	s0,a7
    33b8:	00030913          	mv	s2,t1
    33bc:	00c0006f          	j	33c8 <_vfprintf_r+0xdac>
    33c0:	ff0d0d13          	addi	s10,s10,-16
    33c4:	05aeda63          	bge	t4,s10,3418 <_vfprintf_r+0xdfc>
    33c8:	01058593          	addi	a1,a1,16
    33cc:	00160613          	addi	a2,a2,1
    33d0:	0147a023          	sw	s4,0(a5)
    33d4:	01d7a223          	sw	t4,4(a5)
    33d8:	0eb12623          	sw	a1,236(sp)
    33dc:	0ec12423          	sw	a2,232(sp)
    33e0:	00878793          	addi	a5,a5,8
    33e4:	fccfdee3          	bge	t6,a2,33c0 <_vfprintf_r+0xda4>
    33e8:	00412503          	lw	a0,4(sp)
    33ec:	0e410613          	addi	a2,sp,228
    33f0:	000d8593          	mv	a1,s11
    33f4:	7900b0ef          	jal	ra,eb84 <__sprint_r>
    33f8:	18051063          	bnez	a0,3578 <_vfprintf_r+0xf5c>
    33fc:	01000e93          	li	t4,16
    3400:	ff0d0d13          	addi	s10,s10,-16
    3404:	0ec12583          	lw	a1,236(sp)
    3408:	0e812603          	lw	a2,232(sp)
    340c:	10c10793          	addi	a5,sp,268
    3410:	00700f93          	li	t6,7
    3414:	fbaecae3          	blt	t4,s10,33c8 <_vfprintf_r+0xdac>
    3418:	00040893          	mv	a7,s0
    341c:	00090313          	mv	t1,s2
    3420:	00078413          	mv	s0,a5
    3424:	00098913          	mv	s2,s3
    3428:	000a8993          	mv	s3,s5
    342c:	000a0a93          	mv	s5,s4
    3430:	00bd05b3          	add	a1,s10,a1
    3434:	00160613          	addi	a2,a2,1
    3438:	01542023          	sw	s5,0(s0)
    343c:	01a42223          	sw	s10,4(s0)
    3440:	0eb12623          	sw	a1,236(sp)
    3444:	0ec12423          	sw	a2,232(sp)
    3448:	00700693          	li	a3,7
    344c:	00840413          	addi	s0,s0,8
    3450:	c8c6dc63          	bge	a3,a2,28e8 <_vfprintf_r+0x2cc>
    3454:	00412503          	lw	a0,4(sp)
    3458:	0e410613          	addi	a2,sp,228
    345c:	000d8593          	mv	a1,s11
    3460:	04612223          	sw	t1,68(sp)
    3464:	03112e23          	sw	a7,60(sp)
    3468:	71c0b0ef          	jal	ra,eb84 <__sprint_r>
    346c:	10051663          	bnez	a0,3578 <_vfprintf_r+0xf5c>
    3470:	04412303          	lw	t1,68(sp)
    3474:	03c12883          	lw	a7,60(sp)
    3478:	10c10413          	addi	s0,sp,268
    347c:	c6cff06f          	j	28e8 <_vfprintf_r+0x2cc>
    3480:	0ec12603          	lw	a2,236(sp)
    3484:	0e812683          	lw	a3,232(sp)
    3488:	00015a97          	auipc	s5,0x15
    348c:	ce0a8a93          	addi	s5,s5,-800 # 18168 <zeroes.0>
    3490:	092cd263          	bge	s9,s2,3514 <_vfprintf_r+0xef8>
    3494:	00040793          	mv	a5,s0
    3498:	00090a13          	mv	s4,s2
    349c:	00700d13          	li	s10,7
    34a0:	00088413          	mv	s0,a7
    34a4:	00030913          	mv	s2,t1
    34a8:	00c0006f          	j	34b4 <_vfprintf_r+0xe98>
    34ac:	ff0a0a13          	addi	s4,s4,-16
    34b0:	054cda63          	bge	s9,s4,3504 <_vfprintf_r+0xee8>
    34b4:	01060613          	addi	a2,a2,16
    34b8:	00168693          	addi	a3,a3,1
    34bc:	00015717          	auipc	a4,0x15
    34c0:	cac70713          	addi	a4,a4,-852 # 18168 <zeroes.0>
    34c4:	00e7a023          	sw	a4,0(a5)
    34c8:	0197a223          	sw	s9,4(a5)
    34cc:	0ec12623          	sw	a2,236(sp)
    34d0:	0ed12423          	sw	a3,232(sp)
    34d4:	00878793          	addi	a5,a5,8
    34d8:	fcdd5ae3          	bge	s10,a3,34ac <_vfprintf_r+0xe90>
    34dc:	00412503          	lw	a0,4(sp)
    34e0:	0e410613          	addi	a2,sp,228
    34e4:	000d8593          	mv	a1,s11
    34e8:	69c0b0ef          	jal	ra,eb84 <__sprint_r>
    34ec:	08051663          	bnez	a0,3578 <_vfprintf_r+0xf5c>
    34f0:	ff0a0a13          	addi	s4,s4,-16
    34f4:	0ec12603          	lw	a2,236(sp)
    34f8:	0e812683          	lw	a3,232(sp)
    34fc:	10c10793          	addi	a5,sp,268
    3500:	fb4ccae3          	blt	s9,s4,34b4 <_vfprintf_r+0xe98>
    3504:	00040893          	mv	a7,s0
    3508:	00090313          	mv	t1,s2
    350c:	00078413          	mv	s0,a5
    3510:	000a0913          	mv	s2,s4
    3514:	00c90633          	add	a2,s2,a2
    3518:	00168693          	addi	a3,a3,1
    351c:	01542023          	sw	s5,0(s0)
    3520:	01242223          	sw	s2,4(s0)
    3524:	0ec12623          	sw	a2,236(sp)
    3528:	0ed12423          	sw	a3,232(sp)
    352c:	00700613          	li	a2,7
    3530:	00840413          	addi	s0,s0,8
    3534:	bad65e63          	bge	a2,a3,28f0 <_vfprintf_r+0x2d4>
    3538:	00412503          	lw	a0,4(sp)
    353c:	0e410613          	addi	a2,sp,228
    3540:	000d8593          	mv	a1,s11
    3544:	04612223          	sw	t1,68(sp)
    3548:	03112e23          	sw	a7,60(sp)
    354c:	6380b0ef          	jal	ra,eb84 <__sprint_r>
    3550:	02051463          	bnez	a0,3578 <_vfprintf_r+0xf5c>
    3554:	04412303          	lw	t1,68(sp)
    3558:	03c12883          	lw	a7,60(sp)
    355c:	10c10413          	addi	s0,sp,268
    3560:	b90ff06f          	j	28f0 <_vfprintf_r+0x2d4>
    3564:	00412503          	lw	a0,4(sp)
    3568:	0e410613          	addi	a2,sp,228
    356c:	000d8593          	mv	a1,s11
    3570:	6140b0ef          	jal	ra,eb84 <__sprint_r>
    3574:	bc050c63          	beqz	a0,294c <_vfprintf_r+0x330>
    3578:	00c12583          	lw	a1,12(sp)
    357c:	c0058463          	beqz	a1,2984 <_vfprintf_r+0x368>
    3580:	00412503          	lw	a0,4(sp)
    3584:	3c9020ef          	jal	ra,614c <_free_r>
    3588:	064da703          	lw	a4,100(s11)
    358c:	00cd9783          	lh	a5,12(s11)
    3590:	00177713          	andi	a4,a4,1
    3594:	c0071063          	bnez	a4,2994 <_vfprintf_r+0x378>
    3598:	84dff06f          	j	2de4 <_vfprintf_r+0x7c8>
    359c:	01000513          	li	a0,16
    35a0:	0ec12583          	lw	a1,236(sp)
    35a4:	0e812603          	lw	a2,232(sp)
    35a8:	00015a97          	auipc	s5,0x15
    35ac:	bb0a8a93          	addi	s5,s5,-1104 # 18158 <blanks.1>
    35b0:	0ad55863          	bge	a0,a3,3660 <_vfprintf_r+0x1044>
    35b4:	02912e23          	sw	s1,60(sp)
    35b8:	00040793          	mv	a5,s0
    35bc:	000a8493          	mv	s1,s5
    35c0:	01000e13          	li	t3,16
    35c4:	00098a93          	mv	s5,s3
    35c8:	00700393          	li	t2,7
    35cc:	00090993          	mv	s3,s2
    35d0:	00028a13          	mv	s4,t0
    35d4:	05112223          	sw	a7,68(sp)
    35d8:	00068413          	mv	s0,a3
    35dc:	00030913          	mv	s2,t1
    35e0:	00c0006f          	j	35ec <_vfprintf_r+0xfd0>
    35e4:	ff040413          	addi	s0,s0,-16
    35e8:	048e5a63          	bge	t3,s0,363c <_vfprintf_r+0x1020>
    35ec:	01058593          	addi	a1,a1,16
    35f0:	00160613          	addi	a2,a2,1
    35f4:	0097a023          	sw	s1,0(a5)
    35f8:	01c7a223          	sw	t3,4(a5)
    35fc:	0eb12623          	sw	a1,236(sp)
    3600:	0ec12423          	sw	a2,232(sp)
    3604:	00878793          	addi	a5,a5,8
    3608:	fcc3dee3          	bge	t2,a2,35e4 <_vfprintf_r+0xfc8>
    360c:	00412503          	lw	a0,4(sp)
    3610:	0e410613          	addi	a2,sp,228
    3614:	000d8593          	mv	a1,s11
    3618:	56c0b0ef          	jal	ra,eb84 <__sprint_r>
    361c:	f4051ee3          	bnez	a0,3578 <_vfprintf_r+0xf5c>
    3620:	01000e13          	li	t3,16
    3624:	ff040413          	addi	s0,s0,-16
    3628:	0ec12583          	lw	a1,236(sp)
    362c:	0e812603          	lw	a2,232(sp)
    3630:	10c10793          	addi	a5,sp,268
    3634:	00700393          	li	t2,7
    3638:	fa8e4ae3          	blt	t3,s0,35ec <_vfprintf_r+0xfd0>
    363c:	00090313          	mv	t1,s2
    3640:	04412883          	lw	a7,68(sp)
    3644:	00098913          	mv	s2,s3
    3648:	000a8993          	mv	s3,s5
    364c:	00048a93          	mv	s5,s1
    3650:	03c12483          	lw	s1,60(sp)
    3654:	00040693          	mv	a3,s0
    3658:	000a0293          	mv	t0,s4
    365c:	00078413          	mv	s0,a5
    3660:	00b685b3          	add	a1,a3,a1
    3664:	00160613          	addi	a2,a2,1
    3668:	00d42223          	sw	a3,4(s0)
    366c:	01542023          	sw	s5,0(s0)
    3670:	0eb12623          	sw	a1,236(sp)
    3674:	0ec12423          	sw	a2,232(sp)
    3678:	00700693          	li	a3,7
    367c:	00840413          	addi	s0,s0,8
    3680:	9ec6d663          	bge	a3,a2,286c <_vfprintf_r+0x250>
    3684:	00412503          	lw	a0,4(sp)
    3688:	0e410613          	addi	a2,sp,228
    368c:	000d8593          	mv	a1,s11
    3690:	04612423          	sw	t1,72(sp)
    3694:	05112223          	sw	a7,68(sp)
    3698:	02512e23          	sw	t0,60(sp)
    369c:	4e80b0ef          	jal	ra,eb84 <__sprint_r>
    36a0:	ec051ce3          	bnez	a0,3578 <_vfprintf_r+0xf5c>
    36a4:	04812303          	lw	t1,72(sp)
    36a8:	04412883          	lw	a7,68(sp)
    36ac:	03c12283          	lw	t0,60(sp)
    36b0:	10c10413          	addi	s0,sp,268
    36b4:	9b8ff06f          	j	286c <_vfprintf_r+0x250>
    36b8:	00412503          	lw	a0,4(sp)
    36bc:	0e410613          	addi	a2,sp,228
    36c0:	000d8593          	mv	a1,s11
    36c4:	04612223          	sw	t1,68(sp)
    36c8:	03112e23          	sw	a7,60(sp)
    36cc:	4b80b0ef          	jal	ra,eb84 <__sprint_r>
    36d0:	ea0514e3          	bnez	a0,3578 <_vfprintf_r+0xf5c>
    36d4:	04412303          	lw	t1,68(sp)
    36d8:	03c12883          	lw	a7,60(sp)
    36dc:	10c10413          	addi	s0,sp,268
    36e0:	a00ff06f          	j	28e0 <_vfprintf_r+0x2c4>
    36e4:	0cc12583          	lw	a1,204(sp)
    36e8:	36b05263          	blez	a1,3a4c <_vfprintf_r+0x1430>
    36ec:	01812783          	lw	a5,24(sp)
    36f0:	01412703          	lw	a4,20(sp)
    36f4:	00fb8a33          	add	s4,s7,a5
    36f8:	00078913          	mv	s2,a5
    36fc:	00f75463          	bge	a4,a5,3704 <_vfprintf_r+0x10e8>
    3700:	00070913          	mv	s2,a4
    3704:	0ec12683          	lw	a3,236(sp)
    3708:	03205863          	blez	s2,3738 <_vfprintf_r+0x111c>
    370c:	0e812603          	lw	a2,232(sp)
    3710:	012686b3          	add	a3,a3,s2
    3714:	01742023          	sw	s7,0(s0)
    3718:	00160613          	addi	a2,a2,1
    371c:	01242223          	sw	s2,4(s0)
    3720:	0ed12623          	sw	a3,236(sp)
    3724:	0ec12423          	sw	a2,232(sp)
    3728:	00700593          	li	a1,7
    372c:	00840413          	addi	s0,s0,8
    3730:	00c5d463          	bge	a1,a2,3738 <_vfprintf_r+0x111c>
    3734:	5780106f          	j	4cac <_vfprintf_r+0x2690>
    3738:	fff94613          	not	a2,s2
    373c:	01412783          	lw	a5,20(sp)
    3740:	41f65613          	srai	a2,a2,0x1f
    3744:	00c978b3          	and	a7,s2,a2
    3748:	41178933          	sub	s2,a5,a7
    374c:	19204ce3          	bgtz	s2,40e4 <_vfprintf_r+0x1ac8>
    3750:	01412783          	lw	a5,20(sp)
    3754:	400b7613          	andi	a2,s6,1024
    3758:	00fb8bb3          	add	s7,s7,a5
    375c:	00060463          	beqz	a2,3764 <_vfprintf_r+0x1148>
    3760:	2d40106f          	j	4a34 <_vfprintf_r+0x2418>
    3764:	0cc12583          	lw	a1,204(sp)
    3768:	01812783          	lw	a5,24(sp)
    376c:	00f5c663          	blt	a1,a5,3778 <_vfprintf_r+0x115c>
    3770:	001b7613          	andi	a2,s6,1
    3774:	420602e3          	beqz	a2,4398 <_vfprintf_r+0x1d7c>
    3778:	02412783          	lw	a5,36(sp)
    377c:	0e812603          	lw	a2,232(sp)
    3780:	02812703          	lw	a4,40(sp)
    3784:	00d786b3          	add	a3,a5,a3
    3788:	00160613          	addi	a2,a2,1
    378c:	00e42023          	sw	a4,0(s0)
    3790:	00f42223          	sw	a5,4(s0)
    3794:	0ed12623          	sw	a3,236(sp)
    3798:	0ec12423          	sw	a2,232(sp)
    379c:	00700513          	li	a0,7
    37a0:	00840413          	addi	s0,s0,8
    37a4:	00c55463          	bge	a0,a2,37ac <_vfprintf_r+0x1190>
    37a8:	53c0106f          	j	4ce4 <_vfprintf_r+0x26c8>
    37ac:	01812783          	lw	a5,24(sp)
    37b0:	417a0933          	sub	s2,s4,s7
    37b4:	40b785b3          	sub	a1,a5,a1
    37b8:	0125d463          	bge	a1,s2,37c0 <_vfprintf_r+0x11a4>
    37bc:	00058913          	mv	s2,a1
    37c0:	03205863          	blez	s2,37f0 <_vfprintf_r+0x11d4>
    37c4:	0e812783          	lw	a5,232(sp)
    37c8:	012686b3          	add	a3,a3,s2
    37cc:	01742023          	sw	s7,0(s0)
    37d0:	00178793          	addi	a5,a5,1
    37d4:	01242223          	sw	s2,4(s0)
    37d8:	0ed12623          	sw	a3,236(sp)
    37dc:	0ef12423          	sw	a5,232(sp)
    37e0:	00700613          	li	a2,7
    37e4:	00840413          	addi	s0,s0,8
    37e8:	00f65463          	bge	a2,a5,37f0 <_vfprintf_r+0x11d4>
    37ec:	5540106f          	j	4d40 <_vfprintf_r+0x2724>
    37f0:	fff94793          	not	a5,s2
    37f4:	41f7d793          	srai	a5,a5,0x1f
    37f8:	00f979b3          	and	s3,s2,a5
    37fc:	41358933          	sub	s2,a1,s3
    3800:	93205263          	blez	s2,2924 <_vfprintf_r+0x308>
    3804:	01000613          	li	a2,16
    3808:	0e812783          	lw	a5,232(sp)
    380c:	00015a97          	auipc	s5,0x15
    3810:	95ca8a93          	addi	s5,s5,-1700 # 18168 <zeroes.0>
    3814:	012652e3          	bge	a2,s2,4018 <_vfprintf_r+0x19fc>
    3818:	00412a03          	lw	s4,4(sp)
    381c:	01000993          	li	s3,16
    3820:	00700d13          	li	s10,7
    3824:	00030b93          	mv	s7,t1
    3828:	00c0006f          	j	3834 <_vfprintf_r+0x1218>
    382c:	ff090913          	addi	s2,s2,-16
    3830:	7f29d263          	bge	s3,s2,4014 <_vfprintf_r+0x19f8>
    3834:	01068693          	addi	a3,a3,16
    3838:	00178793          	addi	a5,a5,1
    383c:	01542023          	sw	s5,0(s0)
    3840:	01342223          	sw	s3,4(s0)
    3844:	0ed12623          	sw	a3,236(sp)
    3848:	0ef12423          	sw	a5,232(sp)
    384c:	00840413          	addi	s0,s0,8
    3850:	fcfd5ee3          	bge	s10,a5,382c <_vfprintf_r+0x1210>
    3854:	0e410613          	addi	a2,sp,228
    3858:	000d8593          	mv	a1,s11
    385c:	000a0513          	mv	a0,s4
    3860:	3240b0ef          	jal	ra,eb84 <__sprint_r>
    3864:	d0051ae3          	bnez	a0,3578 <_vfprintf_r+0xf5c>
    3868:	0ec12683          	lw	a3,236(sp)
    386c:	0e812783          	lw	a5,232(sp)
    3870:	10c10413          	addi	s0,sp,268
    3874:	fb9ff06f          	j	382c <_vfprintf_r+0x1210>
    3878:	001b7693          	andi	a3,s6,1
    387c:	b6069e63          	bnez	a3,2bf8 <_vfprintf_r+0x5dc>
    3880:	0e812783          	lw	a5,232(sp)
    3884:	0ec12683          	lw	a3,236(sp)
    3888:	01742023          	sw	s7,0(s0)
    388c:	00178913          	addi	s2,a5,1
    3890:	00168d13          	addi	s10,a3,1
    3894:	00c42223          	sw	a2,4(s0)
    3898:	0fa12623          	sw	s10,236(sp)
    389c:	0f212423          	sw	s2,232(sp)
    38a0:	00700793          	li	a5,7
    38a4:	c327d663          	bge	a5,s2,2cd0 <_vfprintf_r+0x6b4>
    38a8:	00412503          	lw	a0,4(sp)
    38ac:	0e410613          	addi	a2,sp,228
    38b0:	000d8593          	mv	a1,s11
    38b4:	00612a23          	sw	t1,20(sp)
    38b8:	2cc0b0ef          	jal	ra,eb84 <__sprint_r>
    38bc:	ca051ee3          	bnez	a0,3578 <_vfprintf_r+0xf5c>
    38c0:	0ec12d03          	lw	s10,236(sp)
    38c4:	0e812903          	lw	s2,232(sp)
    38c8:	01412303          	lw	t1,20(sp)
    38cc:	10c10993          	addi	s3,sp,268
    38d0:	c00ff06f          	j	2cd0 <_vfprintf_r+0x6b4>
    38d4:	01812703          	lw	a4,24(sp)
    38d8:	00100793          	li	a5,1
    38dc:	bee7da63          	bge	a5,a4,2cd0 <_vfprintf_r+0x6b4>
    38e0:	01100793          	li	a5,17
    38e4:	00015a97          	auipc	s5,0x15
    38e8:	884a8a93          	addi	s5,s5,-1916 # 18168 <zeroes.0>
    38ec:	06e7dee3          	bge	a5,a4,4168 <_vfprintf_r+0x1b4c>
    38f0:	000a8a13          	mv	s4,s5
    38f4:	01000793          	li	a5,16
    38f8:	00700b93          	li	s7,7
    38fc:	00030a93          	mv	s5,t1
    3900:	00c0006f          	j	390c <_vfprintf_r+0x12f0>
    3904:	ff040413          	addi	s0,s0,-16
    3908:	0487dce3          	bge	a5,s0,4160 <_vfprintf_r+0x1b44>
    390c:	010d0d13          	addi	s10,s10,16
    3910:	00190913          	addi	s2,s2,1
    3914:	0149a023          	sw	s4,0(s3)
    3918:	00f9a223          	sw	a5,4(s3)
    391c:	0fa12623          	sw	s10,236(sp)
    3920:	0f212423          	sw	s2,232(sp)
    3924:	00898993          	addi	s3,s3,8
    3928:	fd2bdee3          	bge	s7,s2,3904 <_vfprintf_r+0x12e8>
    392c:	00412503          	lw	a0,4(sp)
    3930:	0e410613          	addi	a2,sp,228
    3934:	000d8593          	mv	a1,s11
    3938:	24c0b0ef          	jal	ra,eb84 <__sprint_r>
    393c:	c2051ee3          	bnez	a0,3578 <_vfprintf_r+0xf5c>
    3940:	0ec12d03          	lw	s10,236(sp)
    3944:	0e812903          	lw	s2,232(sp)
    3948:	10c10993          	addi	s3,sp,268
    394c:	01000793          	li	a5,16
    3950:	fb5ff06f          	j	3904 <_vfprintf_r+0x12e8>
    3954:	01012703          	lw	a4,16(sp)
    3958:	010b7793          	andi	a5,s6,16
    395c:	00072983          	lw	s3,0(a4)
    3960:	00470713          	addi	a4,a4,4
    3964:	00e12823          	sw	a4,16(sp)
    3968:	18079c63          	bnez	a5,3b00 <_vfprintf_r+0x14e4>
    396c:	040b7793          	andi	a5,s6,64
    3970:	18078463          	beqz	a5,3af8 <_vfprintf_r+0x14dc>
    3974:	01099993          	slli	s3,s3,0x10
    3978:	0109d993          	srli	s3,s3,0x10
    397c:	00000c13          	li	s8,0
    3980:	e40ff06f          	j	2fc0 <_vfprintf_r+0x9a4>
    3984:	01012703          	lw	a4,16(sp)
    3988:	010b7793          	andi	a5,s6,16
    398c:	00072983          	lw	s3,0(a4)
    3990:	00470713          	addi	a4,a4,4
    3994:	00e12823          	sw	a4,16(sp)
    3998:	16079c63          	bnez	a5,3b10 <_vfprintf_r+0x14f4>
    399c:	040b7793          	andi	a5,s6,64
    39a0:	16078463          	beqz	a5,3b08 <_vfprintf_r+0x14ec>
    39a4:	01099993          	slli	s3,s3,0x10
    39a8:	4109d993          	srai	s3,s3,0x10
    39ac:	41f9dc13          	srai	s8,s3,0x1f
    39b0:	000c0793          	mv	a5,s8
    39b4:	f607d463          	bgez	a5,311c <_vfprintf_r+0xb00>
    39b8:	013037b3          	snez	a5,s3
    39bc:	41800c33          	neg	s8,s8
    39c0:	40fc0c33          	sub	s8,s8,a5
    39c4:	413009b3          	neg	s3,s3
    39c8:	000b0d13          	mv	s10,s6
    39cc:	02d00793          	li	a5,45
    39d0:	00100693          	li	a3,1
    39d4:	df8ff06f          	j	2fcc <_vfprintf_r+0x9b0>
    39d8:	01012703          	lw	a4,16(sp)
    39dc:	010d7793          	andi	a5,s10,16
    39e0:	00072983          	lw	s3,0(a4)
    39e4:	00470713          	addi	a4,a4,4
    39e8:	00e12823          	sw	a4,16(sp)
    39ec:	10079063          	bnez	a5,3aec <_vfprintf_r+0x14d0>
    39f0:	040d7793          	andi	a5,s10,64
    39f4:	0e078663          	beqz	a5,3ae0 <_vfprintf_r+0x14c4>
    39f8:	01099993          	slli	s3,s3,0x10
    39fc:	0109d993          	srli	s3,s3,0x10
    3a00:	00000c13          	li	s8,0
    3a04:	00100693          	li	a3,1
    3a08:	dc0ff06f          	j	2fc8 <_vfprintf_r+0x9ac>
    3a0c:	00000993          	li	s3,0
    3a10:	1b010b93          	addi	s7,sp,432
    3a14:	de4ff06f          	j	2ff8 <_vfprintf_r+0x9dc>
    3a18:	001b7793          	andi	a5,s6,1
    3a1c:	00079463          	bnez	a5,3a24 <_vfprintf_r+0x1408>
    3a20:	f05fe06f          	j	2924 <_vfprintf_r+0x308>
    3a24:	fdcff06f          	j	3200 <_vfprintf_r+0xbe4>
    3a28:	058da503          	lw	a0,88(s11)
    3a2c:	4b9050ef          	jal	ra,96e4 <__retarget_lock_acquire_recursive>
    3a30:	00cd9783          	lh	a5,12(s11)
    3a34:	c85fe06f          	j	26b8 <_vfprintf_r+0x9c>
    3a38:	000a0313          	mv	t1,s4
    3a3c:	eb4ff06f          	j	30f0 <_vfprintf_r+0xad4>
    3a40:	0004c883          	lbu	a7,0(s1)
    3a44:	00f12823          	sw	a5,16(sp)
    3a48:	d7dfe06f          	j	27c4 <_vfprintf_r+0x1a8>
    3a4c:	0ec12683          	lw	a3,236(sp)
    3a50:	0e812603          	lw	a2,232(sp)
    3a54:	00014517          	auipc	a0,0x14
    3a58:	4fc50513          	addi	a0,a0,1276 # 17f50 <__flash_rodata_start+0x2c0>
    3a5c:	00a42023          	sw	a0,0(s0)
    3a60:	00168693          	addi	a3,a3,1
    3a64:	00100513          	li	a0,1
    3a68:	00160613          	addi	a2,a2,1
    3a6c:	00a42223          	sw	a0,4(s0)
    3a70:	0ed12623          	sw	a3,236(sp)
    3a74:	0ec12423          	sw	a2,232(sp)
    3a78:	00700513          	li	a0,7
    3a7c:	00840413          	addi	s0,s0,8
    3a80:	0cc54ae3          	blt	a0,a2,4354 <_vfprintf_r+0x1d38>
    3a84:	6e059a63          	bnez	a1,4178 <_vfprintf_r+0x1b5c>
    3a88:	01812783          	lw	a5,24(sp)
    3a8c:	001b7613          	andi	a2,s6,1
    3a90:	00f66633          	or	a2,a2,a5
    3a94:	00061463          	bnez	a2,3a9c <_vfprintf_r+0x1480>
    3a98:	e8dfe06f          	j	2924 <_vfprintf_r+0x308>
    3a9c:	02412783          	lw	a5,36(sp)
    3aa0:	0e812603          	lw	a2,232(sp)
    3aa4:	02812703          	lw	a4,40(sp)
    3aa8:	00d786b3          	add	a3,a5,a3
    3aac:	00160613          	addi	a2,a2,1
    3ab0:	00e42023          	sw	a4,0(s0)
    3ab4:	00f42223          	sw	a5,4(s0)
    3ab8:	0ed12623          	sw	a3,236(sp)
    3abc:	0ec12423          	sw	a2,232(sp)
    3ac0:	00700593          	li	a1,7
    3ac4:	28c5cee3          	blt	a1,a2,4560 <_vfprintf_r+0x1f44>
    3ac8:	00840413          	addi	s0,s0,8
    3acc:	6e00006f          	j	41ac <_vfprintf_r+0x1b90>
    3ad0:	03000793          	li	a5,48
    3ad4:	1af107a3          	sb	a5,431(sp)
    3ad8:	1af10b93          	addi	s7,sp,431
    3adc:	d1cff06f          	j	2ff8 <_vfprintf_r+0x9dc>
    3ae0:	200d7793          	andi	a5,s10,512
    3ae4:	00078463          	beqz	a5,3aec <_vfprintf_r+0x14d0>
    3ae8:	0ff9f993          	zext.b	s3,s3
    3aec:	00000c13          	li	s8,0
    3af0:	00100693          	li	a3,1
    3af4:	cd4ff06f          	j	2fc8 <_vfprintf_r+0x9ac>
    3af8:	200b7793          	andi	a5,s6,512
    3afc:	0c0792e3          	bnez	a5,43c0 <_vfprintf_r+0x1da4>
    3b00:	00000c13          	li	s8,0
    3b04:	cbcff06f          	j	2fc0 <_vfprintf_r+0x9a4>
    3b08:	200b7793          	andi	a5,s6,512
    3b0c:	0a0790e3          	bnez	a5,43ac <_vfprintf_r+0x1d90>
    3b10:	41f9dc13          	srai	s8,s3,0x1f
    3b14:	000c0793          	mv	a5,s8
    3b18:	e00ff06f          	j	3118 <_vfprintf_r+0xafc>
    3b1c:	010b7793          	andi	a5,s6,16
    3b20:	5a079863          	bnez	a5,40d0 <_vfprintf_r+0x1ab4>
    3b24:	040b7793          	andi	a5,s6,64
    3b28:	0a0798e3          	bnez	a5,43d8 <_vfprintf_r+0x1dbc>
    3b2c:	200b7713          	andi	a4,s6,512
    3b30:	5a070063          	beqz	a4,40d0 <_vfprintf_r+0x1ab4>
    3b34:	01012783          	lw	a5,16(sp)
    3b38:	00812703          	lw	a4,8(sp)
    3b3c:	0007a783          	lw	a5,0(a5)
    3b40:	00e78023          	sb	a4,0(a5)
    3b44:	d7cff06f          	j	30c0 <_vfprintf_r+0xaa4>
    3b48:	01012783          	lw	a5,16(sp)
    3b4c:	0007a683          	lw	a3,0(a5)
    3b50:	00478793          	addi	a5,a5,4
    3b54:	00f12823          	sw	a5,16(sp)
    3b58:	0006a803          	lw	a6,0(a3)
    3b5c:	0046a583          	lw	a1,4(a3)
    3b60:	0086a603          	lw	a2,8(a3)
    3b64:	00c6a683          	lw	a3,12(a3)
    3b68:	fa1fe06f          	j	2b08 <_vfprintf_r+0x4ec>
    3b6c:	03412783          	lw	a5,52(sp)
    3b70:	0004c883          	lbu	a7,0(s1)
    3b74:	00079463          	bnez	a5,3b7c <_vfprintf_r+0x1560>
    3b78:	c4dfe06f          	j	27c4 <_vfprintf_r+0x1a8>
    3b7c:	0007c783          	lbu	a5,0(a5)
    3b80:	00079463          	bnez	a5,3b88 <_vfprintf_r+0x156c>
    3b84:	c41fe06f          	j	27c4 <_vfprintf_r+0x1a8>
    3b88:	400b6b13          	ori	s6,s6,1024
    3b8c:	c39fe06f          	j	27c4 <_vfprintf_r+0x1a8>
    3b90:	00014797          	auipc	a5,0x14
    3b94:	3a478793          	addi	a5,a5,932 # 17f34 <__flash_rodata_start+0x2a4>
    3b98:	000a0313          	mv	t1,s4
    3b9c:	02f12623          	sw	a5,44(sp)
    3ba0:	020b7793          	andi	a5,s6,32
    3ba4:	2a078463          	beqz	a5,3e4c <_vfprintf_r+0x1830>
    3ba8:	01012783          	lw	a5,16(sp)
    3bac:	00778a93          	addi	s5,a5,7
    3bb0:	ff8afa93          	andi	s5,s5,-8
    3bb4:	000aa983          	lw	s3,0(s5)
    3bb8:	004aac03          	lw	s8,4(s5)
    3bbc:	008a8793          	addi	a5,s5,8
    3bc0:	00f12823          	sw	a5,16(sp)
    3bc4:	001b7793          	andi	a5,s6,1
    3bc8:	00078e63          	beqz	a5,3be4 <_vfprintf_r+0x15c8>
    3bcc:	0189e7b3          	or	a5,s3,s8
    3bd0:	00078a63          	beqz	a5,3be4 <_vfprintf_r+0x15c8>
    3bd4:	03000793          	li	a5,48
    3bd8:	0cf10423          	sb	a5,200(sp)
    3bdc:	0d1104a3          	sb	a7,201(sp)
    3be0:	002b6b13          	ori	s6,s6,2
    3be4:	bffb7d13          	andi	s10,s6,-1025
    3be8:	00200693          	li	a3,2
    3bec:	bdcff06f          	j	2fc8 <_vfprintf_r+0x9ac>
    3bf0:	000a0313          	mv	t1,s4
    3bf4:	000b0d13          	mv	s10,s6
    3bf8:	c30ff06f          	j	3028 <_vfprintf_r+0xa0c>
    3bfc:	00412503          	lw	a0,4(sp)
    3c00:	0e410613          	addi	a2,sp,228
    3c04:	000d8593          	mv	a1,s11
    3c08:	00612a23          	sw	t1,20(sp)
    3c0c:	7790a0ef          	jal	ra,eb84 <__sprint_r>
    3c10:	960514e3          	bnez	a0,3578 <_vfprintf_r+0xf5c>
    3c14:	0ec12683          	lw	a3,236(sp)
    3c18:	01412303          	lw	t1,20(sp)
    3c1c:	10c10413          	addi	s0,sp,268
    3c20:	e10ff06f          	j	3230 <_vfprintf_r+0xc14>
    3c24:	00014797          	auipc	a5,0x14
    3c28:	2fc78793          	addi	a5,a5,764 # 17f20 <__flash_rodata_start+0x290>
    3c2c:	000a0313          	mv	t1,s4
    3c30:	02f12623          	sw	a5,44(sp)
    3c34:	f6dff06f          	j	3ba0 <_vfprintf_r+0x1584>
    3c38:	000a0313          	mv	t1,s4
    3c3c:	b60ff06f          	j	2f9c <_vfprintf_r+0x980>
    3c40:	0014c883          	lbu	a7,1(s1)
    3c44:	200b6b13          	ori	s6,s6,512
    3c48:	00148493          	addi	s1,s1,1
    3c4c:	b79fe06f          	j	27c4 <_vfprintf_r+0x1a8>
    3c50:	0014c883          	lbu	a7,1(s1)
    3c54:	020b6b13          	ori	s6,s6,32
    3c58:	00148493          	addi	s1,s1,1
    3c5c:	b69fe06f          	j	27c4 <_vfprintf_r+0x1a8>
    3c60:	00600793          	li	a5,6
    3c64:	00090993          	mv	s3,s2
    3c68:	7127ec63          	bltu	a5,s2,4380 <_vfprintf_r+0x1d64>
    3c6c:	00098c13          	mv	s8,s3
    3c70:	01512823          	sw	s5,16(sp)
    3c74:	00014b97          	auipc	s7,0x14
    3c78:	2d4b8b93          	addi	s7,s7,724 # 17f48 <__flash_rodata_start+0x2b8>
    3c7c:	bc1fe06f          	j	283c <_vfprintf_r+0x220>
    3c80:	07800793          	li	a5,120
    3c84:	03000693          	li	a3,48
    3c88:	0cf104a3          	sb	a5,201(sp)
    3c8c:	002b6793          	ori	a5,s6,2
    3c90:	0cd10423          	sb	a3,200(sp)
    3c94:	02f12023          	sw	a5,32(sp)
    3c98:	06300693          	li	a3,99
    3c9c:	00012623          	sw	zero,12(sp)
    3ca0:	14c10b93          	addi	s7,sp,332
    3ca4:	0f26cee3          	blt	a3,s2,45a0 <_vfprintf_r+0x1f84>
    3ca8:	0fc12d03          	lw	s10,252(sp)
    3cac:	102b6793          	ori	a5,s6,258
    3cb0:	04f12623          	sw	a5,76(sp)
    3cb4:	06012023          	sw	zero,96(sp)
    3cb8:	0f012f03          	lw	t5,240(sp)
    3cbc:	0f412e83          	lw	t4,244(sp)
    3cc0:	0f812e03          	lw	t3,248(sp)
    3cc4:	080d44e3          	bltz	s10,454c <_vfprintf_r+0x1f30>
    3cc8:	06100713          	li	a4,97
    3ccc:	00e89463          	bne	a7,a4,3cd4 <_vfprintf_r+0x16b8>
    3cd0:	2fc0106f          	j	4fcc <_vfprintf_r+0x29b0>
    3cd4:	fbf88713          	addi	a4,a7,-65
    3cd8:	02500693          	li	a3,37
    3cdc:	02e6e063          	bltu	a3,a4,3cfc <_vfprintf_r+0x16e0>
    3ce0:	00014697          	auipc	a3,0x14
    3ce4:	3e068693          	addi	a3,a3,992 # 180c0 <__flash_rodata_start+0x430>
    3ce8:	00271713          	slli	a4,a4,0x2
    3cec:	00d70733          	add	a4,a4,a3
    3cf0:	00072703          	lw	a4,0(a4)
    3cf4:	00d70733          	add	a4,a4,a3
    3cf8:	00070067          	jr	a4
    3cfc:	00090693          	mv	a3,s2
    3d00:	00200613          	li	a2,2
    3d04:	00412503          	lw	a0,4(sp)
    3d08:	0b010993          	addi	s3,sp,176
    3d0c:	0cc10713          	addi	a4,sp,204
    3d10:	0dc10813          	addi	a6,sp,220
    3d14:	0d010793          	addi	a5,sp,208
    3d18:	00098593          	mv	a1,s3
    3d1c:	04612423          	sw	t1,72(sp)
    3d20:	05112223          	sw	a7,68(sp)
    3d24:	02d12e23          	sw	a3,60(sp)
    3d28:	0be12823          	sw	t5,176(sp)
    3d2c:	01e12e23          	sw	t5,28(sp)
    3d30:	0bd12a23          	sw	t4,180(sp)
    3d34:	01d12c23          	sw	t4,24(sp)
    3d38:	0bc12c23          	sw	t3,184(sp)
    3d3c:	01c12a23          	sw	t3,20(sp)
    3d40:	0ba12e23          	sw	s10,188(sp)
    3d44:	5dc040ef          	jal	ra,8320 <_ldtoa_r>
    3d48:	04412883          	lw	a7,68(sp)
    3d4c:	06700713          	li	a4,103
    3d50:	01412e03          	lw	t3,20(sp)
    3d54:	01812e83          	lw	t4,24(sp)
    3d58:	01c12f03          	lw	t5,28(sp)
    3d5c:	03c12683          	lw	a3,60(sp)
    3d60:	04812303          	lw	t1,72(sp)
    3d64:	00050b93          	mv	s7,a0
    3d68:	68e88263          	beq	a7,a4,43ec <_vfprintf_r+0x1dd0>
    3d6c:	04700713          	li	a4,71
    3d70:	66e88e63          	beq	a7,a4,43ec <_vfprintf_r+0x1dd0>
    3d74:	fdf8fa93          	andi	s5,a7,-33
    3d78:	04600593          	li	a1,70
    3d7c:	00d50c33          	add	s8,a0,a3
    3d80:	0a010b13          	addi	s6,sp,160
    3d84:	00ba9c63          	bne	s5,a1,3d9c <_vfprintf_r+0x1780>
    3d88:	00054503          	lbu	a0,0(a0)
    3d8c:	03000593          	li	a1,48
    3d90:	02b50ee3          	beq	a0,a1,45cc <_vfprintf_r+0x1fb0>
    3d94:	0cc12683          	lw	a3,204(sp)
    3d98:	00dc0c33          	add	s8,s8,a3
    3d9c:	000b0593          	mv	a1,s6
    3da0:	00098513          	mv	a0,s3
    3da4:	00612c23          	sw	t1,24(sp)
    3da8:	01112a23          	sw	a7,20(sp)
    3dac:	0be12823          	sw	t5,176(sp)
    3db0:	0bd12a23          	sw	t4,180(sp)
    3db4:	0bc12c23          	sw	t3,184(sp)
    3db8:	0ba12e23          	sw	s10,188(sp)
    3dbc:	0a012023          	sw	zero,160(sp)
    3dc0:	0a012223          	sw	zero,164(sp)
    3dc4:	0a012423          	sw	zero,168(sp)
    3dc8:	0a012623          	sw	zero,172(sp)
    3dcc:	09d0f0ef          	jal	ra,13668 <__eqtf2>
    3dd0:	01412883          	lw	a7,20(sp)
    3dd4:	01812303          	lw	t1,24(sp)
    3dd8:	000c0b13          	mv	s6,s8
    3ddc:	02050263          	beqz	a0,3e00 <_vfprintf_r+0x17e4>
    3de0:	0dc12b03          	lw	s6,220(sp)
    3de4:	018b7e63          	bgeu	s6,s8,3e00 <_vfprintf_r+0x17e4>
    3de8:	03000593          	li	a1,48
    3dec:	001b0793          	addi	a5,s6,1
    3df0:	0cf12e23          	sw	a5,220(sp)
    3df4:	00bb0023          	sb	a1,0(s6)
    3df8:	0dc12b03          	lw	s6,220(sp)
    3dfc:	ff8b68e3          	bltu	s6,s8,3dec <_vfprintf_r+0x17d0>
    3e00:	417b07b3          	sub	a5,s6,s7
    3e04:	00f12c23          	sw	a5,24(sp)
    3e08:	0cc12683          	lw	a3,204(sp)
    3e0c:	04700713          	li	a4,71
    3e10:	00d12a23          	sw	a3,20(sp)
    3e14:	5eea8a63          	beq	s5,a4,4408 <_vfprintf_r+0x1dec>
    3e18:	04600713          	li	a4,70
    3e1c:	00ea9463          	bne	s5,a4,3e24 <_vfprintf_r+0x1808>
    3e20:	0380106f          	j	4e58 <_vfprintf_r+0x283c>
    3e24:	fff68713          	addi	a4,a3,-1
    3e28:	0ce12623          	sw	a4,204(sp)
    3e2c:	06100613          	li	a2,97
    3e30:	00c89463          	bne	a7,a2,3e38 <_vfprintf_r+0x181c>
    3e34:	3640106f          	j	5198 <_vfprintf_r+0x2b7c>
    3e38:	04100593          	li	a1,65
    3e3c:	05000613          	li	a2,80
    3e40:	5eb89263          	bne	a7,a1,4424 <_vfprintf_r+0x1e08>
    3e44:	00100593          	li	a1,1
    3e48:	5e40006f          	j	442c <_vfprintf_r+0x1e10>
    3e4c:	01012703          	lw	a4,16(sp)
    3e50:	010b7793          	andi	a5,s6,16
    3e54:	00072983          	lw	s3,0(a4)
    3e58:	00470713          	addi	a4,a4,4
    3e5c:	00e12823          	sw	a4,16(sp)
    3e60:	06079e63          	bnez	a5,3edc <_vfprintf_r+0x18c0>
    3e64:	040b7793          	andi	a5,s6,64
    3e68:	06078663          	beqz	a5,3ed4 <_vfprintf_r+0x18b8>
    3e6c:	01099993          	slli	s3,s3,0x10
    3e70:	0109d993          	srli	s3,s3,0x10
    3e74:	00000c13          	li	s8,0
    3e78:	d4dff06f          	j	3bc4 <_vfprintf_r+0x15a8>
    3e7c:	00412503          	lw	a0,4(sp)
    3e80:	0e410613          	addi	a2,sp,228
    3e84:	000d8593          	mv	a1,s11
    3e88:	00612a23          	sw	t1,20(sp)
    3e8c:	4f90a0ef          	jal	ra,eb84 <__sprint_r>
    3e90:	ee051463          	bnez	a0,3578 <_vfprintf_r+0xf5c>
    3e94:	0ec12683          	lw	a3,236(sp)
    3e98:	0e812903          	lw	s2,232(sp)
    3e9c:	01412303          	lw	t1,20(sp)
    3ea0:	10c10993          	addi	s3,sp,268
    3ea4:	d85fe06f          	j	2c28 <_vfprintf_r+0x60c>
    3ea8:	00412503          	lw	a0,4(sp)
    3eac:	0e410613          	addi	a2,sp,228
    3eb0:	000d8593          	mv	a1,s11
    3eb4:	00612a23          	sw	t1,20(sp)
    3eb8:	4cd0a0ef          	jal	ra,eb84 <__sprint_r>
    3ebc:	ea051e63          	bnez	a0,3578 <_vfprintf_r+0xf5c>
    3ec0:	0ec12d03          	lw	s10,236(sp)
    3ec4:	0e812903          	lw	s2,232(sp)
    3ec8:	01412303          	lw	t1,20(sp)
    3ecc:	10c10993          	addi	s3,sp,268
    3ed0:	d89fe06f          	j	2c58 <_vfprintf_r+0x63c>
    3ed4:	200b7793          	andi	a5,s6,512
    3ed8:	4e079a63          	bnez	a5,43cc <_vfprintf_r+0x1db0>
    3edc:	00000c13          	li	s8,0
    3ee0:	ce5ff06f          	j	3bc4 <_vfprintf_r+0x15a8>
    3ee4:	ccccdeb7          	lui	t4,0xccccd
    3ee8:	03412b83          	lw	s7,52(sp)
    3eec:	400d7f13          	andi	t5,s10,1024
    3ef0:	00000693          	li	a3,0
    3ef4:	1b010613          	addi	a2,sp,432
    3ef8:	00500e13          	li	t3,5
    3efc:	ccde8813          	addi	a6,t4,-819 # cccccccd <__alt_data_end+0xcccacccd>
    3f00:	ccce8b13          	addi	s6,t4,-820
    3f04:	0ff00a93          	li	s5,255
    3f08:	0540006f          	j	3f5c <_vfprintf_r+0x1940>
    3f0c:	013a37b3          	sltu	a5,s4,s3
    3f10:	00fa07b3          	add	a5,s4,a5
    3f14:	03c7f7b3          	remu	a5,a5,t3
    3f18:	40f987b3          	sub	a5,s3,a5
    3f1c:	00f9b633          	sltu	a2,s3,a5
    3f20:	40cc0633          	sub	a2,s8,a2
    3f24:	03678533          	mul	a0,a5,s6
    3f28:	03060633          	mul	a2,a2,a6
    3f2c:	0307b5b3          	mulhu	a1,a5,a6
    3f30:	00a60633          	add	a2,a2,a0
    3f34:	030787b3          	mul	a5,a5,a6
    3f38:	00b60633          	add	a2,a2,a1
    3f3c:	01f61593          	slli	a1,a2,0x1f
    3f40:	00165613          	srli	a2,a2,0x1
    3f44:	0017d793          	srli	a5,a5,0x1
    3f48:	00f5e7b3          	or	a5,a1,a5
    3f4c:	580c06e3          	beqz	s8,4cd8 <_vfprintf_r+0x26bc>
    3f50:	00060c13          	mv	s8,a2
    3f54:	00078993          	mv	s3,a5
    3f58:	00070613          	mv	a2,a4
    3f5c:	01898a33          	add	s4,s3,s8
    3f60:	013a37b3          	sltu	a5,s4,s3
    3f64:	00fa07b3          	add	a5,s4,a5
    3f68:	03c7f7b3          	remu	a5,a5,t3
    3f6c:	fff60713          	addi	a4,a2,-1
    3f70:	00168693          	addi	a3,a3,1
    3f74:	40f987b3          	sub	a5,s3,a5
    3f78:	00f9b5b3          	sltu	a1,s3,a5
    3f7c:	40bc05b3          	sub	a1,s8,a1
    3f80:	0307b533          	mulhu	a0,a5,a6
    3f84:	030585b3          	mul	a1,a1,a6
    3f88:	030787b3          	mul	a5,a5,a6
    3f8c:	00a585b3          	add	a1,a1,a0
    3f90:	01f59593          	slli	a1,a1,0x1f
    3f94:	0017d793          	srli	a5,a5,0x1
    3f98:	00f5e7b3          	or	a5,a1,a5
    3f9c:	00279593          	slli	a1,a5,0x2
    3fa0:	00f587b3          	add	a5,a1,a5
    3fa4:	00179793          	slli	a5,a5,0x1
    3fa8:	40f987b3          	sub	a5,s3,a5
    3fac:	03078793          	addi	a5,a5,48
    3fb0:	fef60fa3          	sb	a5,-1(a2)
    3fb4:	f40f0ce3          	beqz	t5,3f0c <_vfprintf_r+0x18f0>
    3fb8:	000bc783          	lbu	a5,0(s7)
    3fbc:	f4f698e3          	bne	a3,a5,3f0c <_vfprintf_r+0x18f0>
    3fc0:	f55686e3          	beq	a3,s5,3f0c <_vfprintf_r+0x18f0>
